
./out/mull.out:     ファイル形式 elf32-mist32


セクション .text の逆アセンブル:

00000000 <_start>:
       0:	0d 40 00 00 	wl16	r0,0x0
       4:	0d 60 00 0f 	wh16	r0,0xf
       8:	1c 00 00 00 	srspw	r0
       c:	14 30 00 18 	br	6c <check>,#al

00000010 <compare>:
      10:	00 c0 01 09 	cmp	r8,r9
      14:	14 41 03 e0 	b	rret,#eq

00000018 <error>:
      18:	0d 40 00 00 	wl16	r0,0x0
      1c:	0d 60 00 02 	wh16	r0,0x2
      20:	0e c0 00 20 	lil	r1,0
      24:	10 a0 00 20 	st32	r1,r0
      28:	0d 40 00 0c 	wl16	r0,0xc
      2c:	0d 60 00 02 	wh16	r0,0x2
      30:	10 a0 00 40 	st32	r2,r0
      34:	0d 40 00 08 	wl16	r0,0x8
      38:	0d 60 00 02 	wh16	r0,0x2
      3c:	10 a0 00 60 	st32	r3,r0
      40:	0d 40 00 10 	wl16	r0,0x10
      44:	0d 60 00 02 	wh16	r0,0x2
      48:	10 a0 01 00 	st32	r8,r0
      4c:	0d 40 00 14 	wl16	r0,0x14
      50:	0d 60 00 02 	wh16	r0,0x2
      54:	10 a0 01 20 	st32	r9,r0

00000058 <finish>:
      58:	0d 40 00 04 	wl16	r0,0x4
      5c:	0d 60 00 02 	wh16	r0,0x2
      60:	0e c0 00 21 	lil	r1,1
      64:	10 a0 00 20 	st32	r1,r0
      68:	14 30 00 00 	br	68 <finish+0x10>,#al

0000006c <check>:
      6c:	0c 40 00 42 	xor	r2,r2
      70:	0c 40 00 63 	xor	r3,r3
      74:	0d 40 01 00 	wl16	r8,0x0
      78:	0d 60 01 03 	wh16	r8,0x3
      7c:	10 40 01 08 	ld32	r8,r8
      80:	0d 42 1e 1c 	wl16	r16,0x10fc
      84:	0d 60 02 03 	wh16	r16,0x3
      88:	10 40 02 10 	ld32	r16,r16
      8c:	0d 44 3d 38 	wl16	r9,0x21f8
      90:	0d 60 01 23 	wh16	r9,0x3
      94:	10 40 01 29 	ld32	r9,r9
      98:	00 40 01 10 	mull	r8,r16
      9c:	20 70 03 e2 	movepc	rret,8
      a0:	14 30 ff dc 	br	10 <compare>,#al
      a4:	00 10 00 41 	add	r2,1
      a8:	0d 40 01 04 	wl16	r8,0x4
      ac:	0d 60 01 03 	wh16	r8,0x3
      b0:	10 40 01 08 	ld32	r8,r8
      b4:	0d 42 22 00 	wl16	r16,0x1100
      b8:	0d 60 02 03 	wh16	r16,0x3
      bc:	10 40 02 10 	ld32	r16,r16
      c0:	0d 44 3d 3c 	wl16	r9,0x21fc
      c4:	0d 60 01 23 	wh16	r9,0x3
      c8:	10 40 01 29 	ld32	r9,r9
      cc:	00 40 01 10 	mull	r8,r16
      d0:	20 70 03 e2 	movepc	rret,8
      d4:	14 30 ff cf 	br	10 <compare>,#al
      d8:	00 10 00 41 	add	r2,1
      dc:	0d 40 01 08 	wl16	r8,0x8
      e0:	0d 60 01 03 	wh16	r8,0x3
      e4:	10 40 01 08 	ld32	r8,r8
      e8:	0d 42 22 04 	wl16	r16,0x1104
      ec:	0d 60 02 03 	wh16	r16,0x3
      f0:	10 40 02 10 	ld32	r16,r16
      f4:	0d 44 41 20 	wl16	r9,0x2200
      f8:	0d 60 01 23 	wh16	r9,0x3
      fc:	10 40 01 29 	ld32	r9,r9
     100:	00 40 01 10 	mull	r8,r16
     104:	20 70 03 e2 	movepc	rret,8
     108:	14 30 ff c2 	br	10 <compare>,#al
     10c:	00 10 00 41 	add	r2,1
     110:	0d 40 01 0c 	wl16	r8,0xc
     114:	0d 60 01 03 	wh16	r8,0x3
     118:	10 40 01 08 	ld32	r8,r8
     11c:	0d 42 22 08 	wl16	r16,0x1108
     120:	0d 60 02 03 	wh16	r16,0x3
     124:	10 40 02 10 	ld32	r16,r16
     128:	0d 44 41 24 	wl16	r9,0x2204
     12c:	0d 60 01 23 	wh16	r9,0x3
     130:	10 40 01 29 	ld32	r9,r9
     134:	00 40 01 10 	mull	r8,r16
     138:	20 70 03 e2 	movepc	rret,8
     13c:	14 30 ff b5 	br	10 <compare>,#al
     140:	00 10 00 41 	add	r2,1
     144:	0d 40 01 10 	wl16	r8,0x10
     148:	0d 60 01 03 	wh16	r8,0x3
     14c:	10 40 01 08 	ld32	r8,r8
     150:	0d 42 22 0c 	wl16	r16,0x110c
     154:	0d 60 02 03 	wh16	r16,0x3
     158:	10 40 02 10 	ld32	r16,r16
     15c:	0d 44 41 28 	wl16	r9,0x2208
     160:	0d 60 01 23 	wh16	r9,0x3
     164:	10 40 01 29 	ld32	r9,r9
     168:	00 40 01 10 	mull	r8,r16
     16c:	20 70 03 e2 	movepc	rret,8
     170:	14 30 ff a8 	br	10 <compare>,#al
     174:	00 10 00 41 	add	r2,1
     178:	0d 40 01 14 	wl16	r8,0x14
     17c:	0d 60 01 03 	wh16	r8,0x3
     180:	10 40 01 08 	ld32	r8,r8
     184:	0d 42 22 10 	wl16	r16,0x1110
     188:	0d 60 02 03 	wh16	r16,0x3
     18c:	10 40 02 10 	ld32	r16,r16
     190:	0d 44 41 2c 	wl16	r9,0x220c
     194:	0d 60 01 23 	wh16	r9,0x3
     198:	10 40 01 29 	ld32	r9,r9
     19c:	00 40 01 10 	mull	r8,r16
     1a0:	20 70 03 e2 	movepc	rret,8
     1a4:	14 30 ff 9b 	br	10 <compare>,#al
     1a8:	00 10 00 41 	add	r2,1
     1ac:	0d 40 01 18 	wl16	r8,0x18
     1b0:	0d 60 01 03 	wh16	r8,0x3
     1b4:	10 40 01 08 	ld32	r8,r8
     1b8:	0d 42 22 14 	wl16	r16,0x1114
     1bc:	0d 60 02 03 	wh16	r16,0x3
     1c0:	10 40 02 10 	ld32	r16,r16
     1c4:	0d 44 41 30 	wl16	r9,0x2210
     1c8:	0d 60 01 23 	wh16	r9,0x3
     1cc:	10 40 01 29 	ld32	r9,r9
     1d0:	00 40 01 10 	mull	r8,r16
     1d4:	20 70 03 e2 	movepc	rret,8
     1d8:	14 30 ff 8e 	br	10 <compare>,#al
     1dc:	00 10 00 41 	add	r2,1
     1e0:	0d 40 01 1c 	wl16	r8,0x1c
     1e4:	0d 60 01 03 	wh16	r8,0x3
     1e8:	10 40 01 08 	ld32	r8,r8
     1ec:	0d 42 22 18 	wl16	r16,0x1118
     1f0:	0d 60 02 03 	wh16	r16,0x3
     1f4:	10 40 02 10 	ld32	r16,r16
     1f8:	0d 44 41 34 	wl16	r9,0x2214
     1fc:	0d 60 01 23 	wh16	r9,0x3
     200:	10 40 01 29 	ld32	r9,r9
     204:	00 40 01 10 	mull	r8,r16
     208:	20 70 03 e2 	movepc	rret,8
     20c:	14 30 ff 81 	br	10 <compare>,#al
     210:	00 10 00 41 	add	r2,1
     214:	0d 40 05 00 	wl16	r8,0x20
     218:	0d 60 01 03 	wh16	r8,0x3
     21c:	10 40 01 08 	ld32	r8,r8
     220:	0d 42 22 1c 	wl16	r16,0x111c
     224:	0d 60 02 03 	wh16	r16,0x3
     228:	10 40 02 10 	ld32	r16,r16
     22c:	0d 44 41 38 	wl16	r9,0x2218
     230:	0d 60 01 23 	wh16	r9,0x3
     234:	10 40 01 29 	ld32	r9,r9
     238:	00 40 01 10 	mull	r8,r16
     23c:	20 70 03 e2 	movepc	rret,8
     240:	14 30 ff 74 	br	10 <compare>,#al
     244:	00 10 00 41 	add	r2,1
     248:	0d 40 05 04 	wl16	r8,0x24
     24c:	0d 60 01 03 	wh16	r8,0x3
     250:	10 40 01 08 	ld32	r8,r8
     254:	0d 42 26 00 	wl16	r16,0x1120
     258:	0d 60 02 03 	wh16	r16,0x3
     25c:	10 40 02 10 	ld32	r16,r16
     260:	0d 44 41 3c 	wl16	r9,0x221c
     264:	0d 60 01 23 	wh16	r9,0x3
     268:	10 40 01 29 	ld32	r9,r9
     26c:	00 40 01 10 	mull	r8,r16
     270:	20 70 03 e2 	movepc	rret,8
     274:	14 30 ff 67 	br	10 <compare>,#al
     278:	00 10 00 41 	add	r2,1
     27c:	0d 40 05 08 	wl16	r8,0x28
     280:	0d 60 01 03 	wh16	r8,0x3
     284:	10 40 01 08 	ld32	r8,r8
     288:	0d 42 26 04 	wl16	r16,0x1124
     28c:	0d 60 02 03 	wh16	r16,0x3
     290:	10 40 02 10 	ld32	r16,r16
     294:	0d 44 45 20 	wl16	r9,0x2220
     298:	0d 60 01 23 	wh16	r9,0x3
     29c:	10 40 01 29 	ld32	r9,r9
     2a0:	00 40 01 10 	mull	r8,r16
     2a4:	20 70 03 e2 	movepc	rret,8
     2a8:	14 30 ff 5a 	br	10 <compare>,#al
     2ac:	00 10 00 41 	add	r2,1
     2b0:	0d 40 05 0c 	wl16	r8,0x2c
     2b4:	0d 60 01 03 	wh16	r8,0x3
     2b8:	10 40 01 08 	ld32	r8,r8
     2bc:	0d 42 26 08 	wl16	r16,0x1128
     2c0:	0d 60 02 03 	wh16	r16,0x3
     2c4:	10 40 02 10 	ld32	r16,r16
     2c8:	0d 44 45 24 	wl16	r9,0x2224
     2cc:	0d 60 01 23 	wh16	r9,0x3
     2d0:	10 40 01 29 	ld32	r9,r9
     2d4:	00 40 01 10 	mull	r8,r16
     2d8:	20 70 03 e2 	movepc	rret,8
     2dc:	14 30 ff 4d 	br	10 <compare>,#al
     2e0:	00 10 00 41 	add	r2,1
     2e4:	0d 40 05 10 	wl16	r8,0x30
     2e8:	0d 60 01 03 	wh16	r8,0x3
     2ec:	10 40 01 08 	ld32	r8,r8
     2f0:	0d 42 26 0c 	wl16	r16,0x112c
     2f4:	0d 60 02 03 	wh16	r16,0x3
     2f8:	10 40 02 10 	ld32	r16,r16
     2fc:	0d 44 45 28 	wl16	r9,0x2228
     300:	0d 60 01 23 	wh16	r9,0x3
     304:	10 40 01 29 	ld32	r9,r9
     308:	00 40 01 10 	mull	r8,r16
     30c:	20 70 03 e2 	movepc	rret,8
     310:	14 30 ff 40 	br	10 <compare>,#al
     314:	00 10 00 41 	add	r2,1
     318:	0d 40 05 14 	wl16	r8,0x34
     31c:	0d 60 01 03 	wh16	r8,0x3
     320:	10 40 01 08 	ld32	r8,r8
     324:	0d 42 26 10 	wl16	r16,0x1130
     328:	0d 60 02 03 	wh16	r16,0x3
     32c:	10 40 02 10 	ld32	r16,r16
     330:	0d 44 45 2c 	wl16	r9,0x222c
     334:	0d 60 01 23 	wh16	r9,0x3
     338:	10 40 01 29 	ld32	r9,r9
     33c:	00 40 01 10 	mull	r8,r16
     340:	20 70 03 e2 	movepc	rret,8
     344:	14 30 ff 33 	br	10 <compare>,#al
     348:	00 10 00 41 	add	r2,1
     34c:	0d 40 05 18 	wl16	r8,0x38
     350:	0d 60 01 03 	wh16	r8,0x3
     354:	10 40 01 08 	ld32	r8,r8
     358:	0d 42 26 14 	wl16	r16,0x1134
     35c:	0d 60 02 03 	wh16	r16,0x3
     360:	10 40 02 10 	ld32	r16,r16
     364:	0d 44 45 30 	wl16	r9,0x2230
     368:	0d 60 01 23 	wh16	r9,0x3
     36c:	10 40 01 29 	ld32	r9,r9
     370:	00 40 01 10 	mull	r8,r16
     374:	20 70 03 e2 	movepc	rret,8
     378:	14 30 ff 26 	br	10 <compare>,#al
     37c:	00 10 00 41 	add	r2,1
     380:	0d 40 05 1c 	wl16	r8,0x3c
     384:	0d 60 01 03 	wh16	r8,0x3
     388:	10 40 01 08 	ld32	r8,r8
     38c:	0d 42 26 18 	wl16	r16,0x1138
     390:	0d 60 02 03 	wh16	r16,0x3
     394:	10 40 02 10 	ld32	r16,r16
     398:	0d 44 45 34 	wl16	r9,0x2234
     39c:	0d 60 01 23 	wh16	r9,0x3
     3a0:	10 40 01 29 	ld32	r9,r9
     3a4:	00 40 01 10 	mull	r8,r16
     3a8:	20 70 03 e2 	movepc	rret,8
     3ac:	14 30 ff 19 	br	10 <compare>,#al
     3b0:	00 10 00 41 	add	r2,1
     3b4:	0d 40 09 00 	wl16	r8,0x40
     3b8:	0d 60 01 03 	wh16	r8,0x3
     3bc:	10 40 01 08 	ld32	r8,r8
     3c0:	0d 42 26 1c 	wl16	r16,0x113c
     3c4:	0d 60 02 03 	wh16	r16,0x3
     3c8:	10 40 02 10 	ld32	r16,r16
     3cc:	0d 44 45 38 	wl16	r9,0x2238
     3d0:	0d 60 01 23 	wh16	r9,0x3
     3d4:	10 40 01 29 	ld32	r9,r9
     3d8:	00 40 01 10 	mull	r8,r16
     3dc:	20 70 03 e2 	movepc	rret,8
     3e0:	14 30 ff 0c 	br	10 <compare>,#al
     3e4:	00 10 00 41 	add	r2,1
     3e8:	0d 40 09 04 	wl16	r8,0x44
     3ec:	0d 60 01 03 	wh16	r8,0x3
     3f0:	10 40 01 08 	ld32	r8,r8
     3f4:	0d 42 2a 00 	wl16	r16,0x1140
     3f8:	0d 60 02 03 	wh16	r16,0x3
     3fc:	10 40 02 10 	ld32	r16,r16
     400:	0d 44 45 3c 	wl16	r9,0x223c
     404:	0d 60 01 23 	wh16	r9,0x3
     408:	10 40 01 29 	ld32	r9,r9
     40c:	00 40 01 10 	mull	r8,r16
     410:	20 70 03 e2 	movepc	rret,8
     414:	14 30 fe ff 	br	10 <compare>,#al
     418:	00 10 00 41 	add	r2,1
     41c:	0d 40 09 08 	wl16	r8,0x48
     420:	0d 60 01 03 	wh16	r8,0x3
     424:	10 40 01 08 	ld32	r8,r8
     428:	0d 42 2a 04 	wl16	r16,0x1144
     42c:	0d 60 02 03 	wh16	r16,0x3
     430:	10 40 02 10 	ld32	r16,r16
     434:	0d 44 49 20 	wl16	r9,0x2240
     438:	0d 60 01 23 	wh16	r9,0x3
     43c:	10 40 01 29 	ld32	r9,r9
     440:	00 40 01 10 	mull	r8,r16
     444:	20 70 03 e2 	movepc	rret,8
     448:	14 30 fe f2 	br	10 <compare>,#al
     44c:	00 10 00 41 	add	r2,1
     450:	0d 40 09 0c 	wl16	r8,0x4c
     454:	0d 60 01 03 	wh16	r8,0x3
     458:	10 40 01 08 	ld32	r8,r8
     45c:	0d 42 2a 08 	wl16	r16,0x1148
     460:	0d 60 02 03 	wh16	r16,0x3
     464:	10 40 02 10 	ld32	r16,r16
     468:	0d 44 49 24 	wl16	r9,0x2244
     46c:	0d 60 01 23 	wh16	r9,0x3
     470:	10 40 01 29 	ld32	r9,r9
     474:	00 40 01 10 	mull	r8,r16
     478:	20 70 03 e2 	movepc	rret,8
     47c:	14 30 fe e5 	br	10 <compare>,#al
     480:	00 10 00 41 	add	r2,1
     484:	0d 40 09 10 	wl16	r8,0x50
     488:	0d 60 01 03 	wh16	r8,0x3
     48c:	10 40 01 08 	ld32	r8,r8
     490:	0d 42 2a 0c 	wl16	r16,0x114c
     494:	0d 60 02 03 	wh16	r16,0x3
     498:	10 40 02 10 	ld32	r16,r16
     49c:	0d 44 49 28 	wl16	r9,0x2248
     4a0:	0d 60 01 23 	wh16	r9,0x3
     4a4:	10 40 01 29 	ld32	r9,r9
     4a8:	00 40 01 10 	mull	r8,r16
     4ac:	20 70 03 e2 	movepc	rret,8
     4b0:	14 30 fe d8 	br	10 <compare>,#al
     4b4:	00 10 00 41 	add	r2,1
     4b8:	0d 40 09 14 	wl16	r8,0x54
     4bc:	0d 60 01 03 	wh16	r8,0x3
     4c0:	10 40 01 08 	ld32	r8,r8
     4c4:	0d 42 2a 10 	wl16	r16,0x1150
     4c8:	0d 60 02 03 	wh16	r16,0x3
     4cc:	10 40 02 10 	ld32	r16,r16
     4d0:	0d 44 49 2c 	wl16	r9,0x224c
     4d4:	0d 60 01 23 	wh16	r9,0x3
     4d8:	10 40 01 29 	ld32	r9,r9
     4dc:	00 40 01 10 	mull	r8,r16
     4e0:	20 70 03 e2 	movepc	rret,8
     4e4:	14 30 fe cb 	br	10 <compare>,#al
     4e8:	00 10 00 41 	add	r2,1
     4ec:	0d 40 09 18 	wl16	r8,0x58
     4f0:	0d 60 01 03 	wh16	r8,0x3
     4f4:	10 40 01 08 	ld32	r8,r8
     4f8:	0d 42 2a 14 	wl16	r16,0x1154
     4fc:	0d 60 02 03 	wh16	r16,0x3
     500:	10 40 02 10 	ld32	r16,r16
     504:	0d 44 49 30 	wl16	r9,0x2250
     508:	0d 60 01 23 	wh16	r9,0x3
     50c:	10 40 01 29 	ld32	r9,r9
     510:	00 40 01 10 	mull	r8,r16
     514:	20 70 03 e2 	movepc	rret,8
     518:	14 30 fe be 	br	10 <compare>,#al
     51c:	00 10 00 41 	add	r2,1
     520:	0d 40 09 1c 	wl16	r8,0x5c
     524:	0d 60 01 03 	wh16	r8,0x3
     528:	10 40 01 08 	ld32	r8,r8
     52c:	0d 42 2a 18 	wl16	r16,0x1158
     530:	0d 60 02 03 	wh16	r16,0x3
     534:	10 40 02 10 	ld32	r16,r16
     538:	0d 44 49 34 	wl16	r9,0x2254
     53c:	0d 60 01 23 	wh16	r9,0x3
     540:	10 40 01 29 	ld32	r9,r9
     544:	00 40 01 10 	mull	r8,r16
     548:	20 70 03 e2 	movepc	rret,8
     54c:	14 30 fe b1 	br	10 <compare>,#al
     550:	00 10 00 41 	add	r2,1
     554:	0d 40 0d 00 	wl16	r8,0x60
     558:	0d 60 01 03 	wh16	r8,0x3
     55c:	10 40 01 08 	ld32	r8,r8
     560:	0d 42 2a 1c 	wl16	r16,0x115c
     564:	0d 60 02 03 	wh16	r16,0x3
     568:	10 40 02 10 	ld32	r16,r16
     56c:	0d 44 49 38 	wl16	r9,0x2258
     570:	0d 60 01 23 	wh16	r9,0x3
     574:	10 40 01 29 	ld32	r9,r9
     578:	00 40 01 10 	mull	r8,r16
     57c:	20 70 03 e2 	movepc	rret,8
     580:	14 30 fe a4 	br	10 <compare>,#al
     584:	00 10 00 41 	add	r2,1
     588:	0d 40 0d 04 	wl16	r8,0x64
     58c:	0d 60 01 03 	wh16	r8,0x3
     590:	10 40 01 08 	ld32	r8,r8
     594:	0d 42 2e 00 	wl16	r16,0x1160
     598:	0d 60 02 03 	wh16	r16,0x3
     59c:	10 40 02 10 	ld32	r16,r16
     5a0:	0d 44 49 3c 	wl16	r9,0x225c
     5a4:	0d 60 01 23 	wh16	r9,0x3
     5a8:	10 40 01 29 	ld32	r9,r9
     5ac:	00 40 01 10 	mull	r8,r16
     5b0:	20 70 03 e2 	movepc	rret,8
     5b4:	14 30 fe 97 	br	10 <compare>,#al
     5b8:	00 10 00 41 	add	r2,1
     5bc:	0d 40 0d 08 	wl16	r8,0x68
     5c0:	0d 60 01 03 	wh16	r8,0x3
     5c4:	10 40 01 08 	ld32	r8,r8
     5c8:	0d 42 2e 04 	wl16	r16,0x1164
     5cc:	0d 60 02 03 	wh16	r16,0x3
     5d0:	10 40 02 10 	ld32	r16,r16
     5d4:	0d 44 4d 20 	wl16	r9,0x2260
     5d8:	0d 60 01 23 	wh16	r9,0x3
     5dc:	10 40 01 29 	ld32	r9,r9
     5e0:	00 40 01 10 	mull	r8,r16
     5e4:	20 70 03 e2 	movepc	rret,8
     5e8:	14 30 fe 8a 	br	10 <compare>,#al
     5ec:	00 10 00 41 	add	r2,1
     5f0:	0d 40 0d 0c 	wl16	r8,0x6c
     5f4:	0d 60 01 03 	wh16	r8,0x3
     5f8:	10 40 01 08 	ld32	r8,r8
     5fc:	0d 42 2e 08 	wl16	r16,0x1168
     600:	0d 60 02 03 	wh16	r16,0x3
     604:	10 40 02 10 	ld32	r16,r16
     608:	0d 44 4d 24 	wl16	r9,0x2264
     60c:	0d 60 01 23 	wh16	r9,0x3
     610:	10 40 01 29 	ld32	r9,r9
     614:	00 40 01 10 	mull	r8,r16
     618:	20 70 03 e2 	movepc	rret,8
     61c:	14 30 fe 7d 	br	10 <compare>,#al
     620:	00 10 00 41 	add	r2,1
     624:	0d 40 0d 10 	wl16	r8,0x70
     628:	0d 60 01 03 	wh16	r8,0x3
     62c:	10 40 01 08 	ld32	r8,r8
     630:	0d 42 2e 0c 	wl16	r16,0x116c
     634:	0d 60 02 03 	wh16	r16,0x3
     638:	10 40 02 10 	ld32	r16,r16
     63c:	0d 44 4d 28 	wl16	r9,0x2268
     640:	0d 60 01 23 	wh16	r9,0x3
     644:	10 40 01 29 	ld32	r9,r9
     648:	00 40 01 10 	mull	r8,r16
     64c:	20 70 03 e2 	movepc	rret,8
     650:	14 30 fe 70 	br	10 <compare>,#al
     654:	00 10 00 41 	add	r2,1
     658:	0d 40 0d 14 	wl16	r8,0x74
     65c:	0d 60 01 03 	wh16	r8,0x3
     660:	10 40 01 08 	ld32	r8,r8
     664:	0d 42 2e 10 	wl16	r16,0x1170
     668:	0d 60 02 03 	wh16	r16,0x3
     66c:	10 40 02 10 	ld32	r16,r16
     670:	0d 44 4d 2c 	wl16	r9,0x226c
     674:	0d 60 01 23 	wh16	r9,0x3
     678:	10 40 01 29 	ld32	r9,r9
     67c:	00 40 01 10 	mull	r8,r16
     680:	20 70 03 e2 	movepc	rret,8
     684:	14 30 fe 63 	br	10 <compare>,#al
     688:	00 10 00 41 	add	r2,1
     68c:	0d 40 0d 18 	wl16	r8,0x78
     690:	0d 60 01 03 	wh16	r8,0x3
     694:	10 40 01 08 	ld32	r8,r8
     698:	0d 42 2e 14 	wl16	r16,0x1174
     69c:	0d 60 02 03 	wh16	r16,0x3
     6a0:	10 40 02 10 	ld32	r16,r16
     6a4:	0d 44 4d 30 	wl16	r9,0x2270
     6a8:	0d 60 01 23 	wh16	r9,0x3
     6ac:	10 40 01 29 	ld32	r9,r9
     6b0:	00 40 01 10 	mull	r8,r16
     6b4:	20 70 03 e2 	movepc	rret,8
     6b8:	14 30 fe 56 	br	10 <compare>,#al
     6bc:	00 10 00 41 	add	r2,1
     6c0:	0d 40 0d 1c 	wl16	r8,0x7c
     6c4:	0d 60 01 03 	wh16	r8,0x3
     6c8:	10 40 01 08 	ld32	r8,r8
     6cc:	0d 42 2e 18 	wl16	r16,0x1178
     6d0:	0d 60 02 03 	wh16	r16,0x3
     6d4:	10 40 02 10 	ld32	r16,r16
     6d8:	0d 44 4d 34 	wl16	r9,0x2274
     6dc:	0d 60 01 23 	wh16	r9,0x3
     6e0:	10 40 01 29 	ld32	r9,r9
     6e4:	00 40 01 10 	mull	r8,r16
     6e8:	20 70 03 e2 	movepc	rret,8
     6ec:	14 30 fe 49 	br	10 <compare>,#al
     6f0:	00 10 00 41 	add	r2,1
     6f4:	0d 40 11 00 	wl16	r8,0x80
     6f8:	0d 60 01 03 	wh16	r8,0x3
     6fc:	10 40 01 08 	ld32	r8,r8
     700:	0d 42 2e 1c 	wl16	r16,0x117c
     704:	0d 60 02 03 	wh16	r16,0x3
     708:	10 40 02 10 	ld32	r16,r16
     70c:	0d 44 4d 38 	wl16	r9,0x2278
     710:	0d 60 01 23 	wh16	r9,0x3
     714:	10 40 01 29 	ld32	r9,r9
     718:	00 40 01 10 	mull	r8,r16
     71c:	20 70 03 e2 	movepc	rret,8
     720:	14 30 fe 3c 	br	10 <compare>,#al
     724:	00 10 00 41 	add	r2,1
     728:	0d 40 11 04 	wl16	r8,0x84
     72c:	0d 60 01 03 	wh16	r8,0x3
     730:	10 40 01 08 	ld32	r8,r8
     734:	0d 42 32 00 	wl16	r16,0x1180
     738:	0d 60 02 03 	wh16	r16,0x3
     73c:	10 40 02 10 	ld32	r16,r16
     740:	0d 44 4d 3c 	wl16	r9,0x227c
     744:	0d 60 01 23 	wh16	r9,0x3
     748:	10 40 01 29 	ld32	r9,r9
     74c:	00 40 01 10 	mull	r8,r16
     750:	20 70 03 e2 	movepc	rret,8
     754:	14 30 fe 2f 	br	10 <compare>,#al
     758:	00 10 00 41 	add	r2,1
     75c:	0d 40 11 08 	wl16	r8,0x88
     760:	0d 60 01 03 	wh16	r8,0x3
     764:	10 40 01 08 	ld32	r8,r8
     768:	0d 42 32 04 	wl16	r16,0x1184
     76c:	0d 60 02 03 	wh16	r16,0x3
     770:	10 40 02 10 	ld32	r16,r16
     774:	0d 44 51 20 	wl16	r9,0x2280
     778:	0d 60 01 23 	wh16	r9,0x3
     77c:	10 40 01 29 	ld32	r9,r9
     780:	00 40 01 10 	mull	r8,r16
     784:	20 70 03 e2 	movepc	rret,8
     788:	14 30 fe 22 	br	10 <compare>,#al
     78c:	00 10 00 41 	add	r2,1
     790:	0d 40 11 0c 	wl16	r8,0x8c
     794:	0d 60 01 03 	wh16	r8,0x3
     798:	10 40 01 08 	ld32	r8,r8
     79c:	0d 42 32 08 	wl16	r16,0x1188
     7a0:	0d 60 02 03 	wh16	r16,0x3
     7a4:	10 40 02 10 	ld32	r16,r16
     7a8:	0d 44 51 24 	wl16	r9,0x2284
     7ac:	0d 60 01 23 	wh16	r9,0x3
     7b0:	10 40 01 29 	ld32	r9,r9
     7b4:	00 40 01 10 	mull	r8,r16
     7b8:	20 70 03 e2 	movepc	rret,8
     7bc:	14 30 fe 15 	br	10 <compare>,#al
     7c0:	00 10 00 41 	add	r2,1
     7c4:	0d 40 11 10 	wl16	r8,0x90
     7c8:	0d 60 01 03 	wh16	r8,0x3
     7cc:	10 40 01 08 	ld32	r8,r8
     7d0:	0d 42 32 0c 	wl16	r16,0x118c
     7d4:	0d 60 02 03 	wh16	r16,0x3
     7d8:	10 40 02 10 	ld32	r16,r16
     7dc:	0d 44 51 28 	wl16	r9,0x2288
     7e0:	0d 60 01 23 	wh16	r9,0x3
     7e4:	10 40 01 29 	ld32	r9,r9
     7e8:	00 40 01 10 	mull	r8,r16
     7ec:	20 70 03 e2 	movepc	rret,8
     7f0:	14 30 fe 08 	br	10 <compare>,#al
     7f4:	00 10 00 41 	add	r2,1
     7f8:	0d 40 11 14 	wl16	r8,0x94
     7fc:	0d 60 01 03 	wh16	r8,0x3
     800:	10 40 01 08 	ld32	r8,r8
     804:	0d 42 32 10 	wl16	r16,0x1190
     808:	0d 60 02 03 	wh16	r16,0x3
     80c:	10 40 02 10 	ld32	r16,r16
     810:	0d 44 51 2c 	wl16	r9,0x228c
     814:	0d 60 01 23 	wh16	r9,0x3
     818:	10 40 01 29 	ld32	r9,r9
     81c:	00 40 01 10 	mull	r8,r16
     820:	20 70 03 e2 	movepc	rret,8
     824:	14 30 fd fb 	br	10 <compare>,#al
     828:	00 10 00 41 	add	r2,1
     82c:	0d 40 11 18 	wl16	r8,0x98
     830:	0d 60 01 03 	wh16	r8,0x3
     834:	10 40 01 08 	ld32	r8,r8
     838:	0d 42 32 14 	wl16	r16,0x1194
     83c:	0d 60 02 03 	wh16	r16,0x3
     840:	10 40 02 10 	ld32	r16,r16
     844:	0d 44 51 30 	wl16	r9,0x2290
     848:	0d 60 01 23 	wh16	r9,0x3
     84c:	10 40 01 29 	ld32	r9,r9
     850:	00 40 01 10 	mull	r8,r16
     854:	20 70 03 e2 	movepc	rret,8
     858:	14 30 fd ee 	br	10 <compare>,#al
     85c:	00 10 00 41 	add	r2,1
     860:	0d 40 11 1c 	wl16	r8,0x9c
     864:	0d 60 01 03 	wh16	r8,0x3
     868:	10 40 01 08 	ld32	r8,r8
     86c:	0d 42 32 18 	wl16	r16,0x1198
     870:	0d 60 02 03 	wh16	r16,0x3
     874:	10 40 02 10 	ld32	r16,r16
     878:	0d 44 51 34 	wl16	r9,0x2294
     87c:	0d 60 01 23 	wh16	r9,0x3
     880:	10 40 01 29 	ld32	r9,r9
     884:	00 40 01 10 	mull	r8,r16
     888:	20 70 03 e2 	movepc	rret,8
     88c:	14 30 fd e1 	br	10 <compare>,#al
     890:	00 10 00 41 	add	r2,1
     894:	0d 40 15 00 	wl16	r8,0xa0
     898:	0d 60 01 03 	wh16	r8,0x3
     89c:	10 40 01 08 	ld32	r8,r8
     8a0:	0d 42 32 1c 	wl16	r16,0x119c
     8a4:	0d 60 02 03 	wh16	r16,0x3
     8a8:	10 40 02 10 	ld32	r16,r16
     8ac:	0d 44 51 38 	wl16	r9,0x2298
     8b0:	0d 60 01 23 	wh16	r9,0x3
     8b4:	10 40 01 29 	ld32	r9,r9
     8b8:	00 40 01 10 	mull	r8,r16
     8bc:	20 70 03 e2 	movepc	rret,8
     8c0:	14 30 fd d4 	br	10 <compare>,#al
     8c4:	00 10 00 41 	add	r2,1
     8c8:	0d 40 15 04 	wl16	r8,0xa4
     8cc:	0d 60 01 03 	wh16	r8,0x3
     8d0:	10 40 01 08 	ld32	r8,r8
     8d4:	0d 42 36 00 	wl16	r16,0x11a0
     8d8:	0d 60 02 03 	wh16	r16,0x3
     8dc:	10 40 02 10 	ld32	r16,r16
     8e0:	0d 44 51 3c 	wl16	r9,0x229c
     8e4:	0d 60 01 23 	wh16	r9,0x3
     8e8:	10 40 01 29 	ld32	r9,r9
     8ec:	00 40 01 10 	mull	r8,r16
     8f0:	20 70 03 e2 	movepc	rret,8
     8f4:	14 30 fd c7 	br	10 <compare>,#al
     8f8:	00 10 00 41 	add	r2,1
     8fc:	0d 40 15 08 	wl16	r8,0xa8
     900:	0d 60 01 03 	wh16	r8,0x3
     904:	10 40 01 08 	ld32	r8,r8
     908:	0d 42 36 04 	wl16	r16,0x11a4
     90c:	0d 60 02 03 	wh16	r16,0x3
     910:	10 40 02 10 	ld32	r16,r16
     914:	0d 44 55 20 	wl16	r9,0x22a0
     918:	0d 60 01 23 	wh16	r9,0x3
     91c:	10 40 01 29 	ld32	r9,r9
     920:	00 40 01 10 	mull	r8,r16
     924:	20 70 03 e2 	movepc	rret,8
     928:	14 30 fd ba 	br	10 <compare>,#al
     92c:	00 10 00 41 	add	r2,1
     930:	0d 40 15 0c 	wl16	r8,0xac
     934:	0d 60 01 03 	wh16	r8,0x3
     938:	10 40 01 08 	ld32	r8,r8
     93c:	0d 42 36 08 	wl16	r16,0x11a8
     940:	0d 60 02 03 	wh16	r16,0x3
     944:	10 40 02 10 	ld32	r16,r16
     948:	0d 44 55 24 	wl16	r9,0x22a4
     94c:	0d 60 01 23 	wh16	r9,0x3
     950:	10 40 01 29 	ld32	r9,r9
     954:	00 40 01 10 	mull	r8,r16
     958:	20 70 03 e2 	movepc	rret,8
     95c:	14 30 fd ad 	br	10 <compare>,#al
     960:	00 10 00 41 	add	r2,1
     964:	0d 40 15 10 	wl16	r8,0xb0
     968:	0d 60 01 03 	wh16	r8,0x3
     96c:	10 40 01 08 	ld32	r8,r8
     970:	0d 42 36 0c 	wl16	r16,0x11ac
     974:	0d 60 02 03 	wh16	r16,0x3
     978:	10 40 02 10 	ld32	r16,r16
     97c:	0d 44 55 28 	wl16	r9,0x22a8
     980:	0d 60 01 23 	wh16	r9,0x3
     984:	10 40 01 29 	ld32	r9,r9
     988:	00 40 01 10 	mull	r8,r16
     98c:	20 70 03 e2 	movepc	rret,8
     990:	14 30 fd a0 	br	10 <compare>,#al
     994:	00 10 00 41 	add	r2,1
     998:	0d 40 15 14 	wl16	r8,0xb4
     99c:	0d 60 01 03 	wh16	r8,0x3
     9a0:	10 40 01 08 	ld32	r8,r8
     9a4:	0d 42 36 10 	wl16	r16,0x11b0
     9a8:	0d 60 02 03 	wh16	r16,0x3
     9ac:	10 40 02 10 	ld32	r16,r16
     9b0:	0d 44 55 2c 	wl16	r9,0x22ac
     9b4:	0d 60 01 23 	wh16	r9,0x3
     9b8:	10 40 01 29 	ld32	r9,r9
     9bc:	00 40 01 10 	mull	r8,r16
     9c0:	20 70 03 e2 	movepc	rret,8
     9c4:	14 30 fd 93 	br	10 <compare>,#al
     9c8:	00 10 00 41 	add	r2,1
     9cc:	0d 40 15 18 	wl16	r8,0xb8
     9d0:	0d 60 01 03 	wh16	r8,0x3
     9d4:	10 40 01 08 	ld32	r8,r8
     9d8:	0d 42 36 14 	wl16	r16,0x11b4
     9dc:	0d 60 02 03 	wh16	r16,0x3
     9e0:	10 40 02 10 	ld32	r16,r16
     9e4:	0d 44 55 30 	wl16	r9,0x22b0
     9e8:	0d 60 01 23 	wh16	r9,0x3
     9ec:	10 40 01 29 	ld32	r9,r9
     9f0:	00 40 01 10 	mull	r8,r16
     9f4:	20 70 03 e2 	movepc	rret,8
     9f8:	14 30 fd 86 	br	10 <compare>,#al
     9fc:	00 10 00 41 	add	r2,1
     a00:	0d 40 15 1c 	wl16	r8,0xbc
     a04:	0d 60 01 03 	wh16	r8,0x3
     a08:	10 40 01 08 	ld32	r8,r8
     a0c:	0d 42 36 18 	wl16	r16,0x11b8
     a10:	0d 60 02 03 	wh16	r16,0x3
     a14:	10 40 02 10 	ld32	r16,r16
     a18:	0d 44 55 34 	wl16	r9,0x22b4
     a1c:	0d 60 01 23 	wh16	r9,0x3
     a20:	10 40 01 29 	ld32	r9,r9
     a24:	00 40 01 10 	mull	r8,r16
     a28:	20 70 03 e2 	movepc	rret,8
     a2c:	14 30 fd 79 	br	10 <compare>,#al
     a30:	00 10 00 41 	add	r2,1
     a34:	0d 40 19 00 	wl16	r8,0xc0
     a38:	0d 60 01 03 	wh16	r8,0x3
     a3c:	10 40 01 08 	ld32	r8,r8
     a40:	0d 42 36 1c 	wl16	r16,0x11bc
     a44:	0d 60 02 03 	wh16	r16,0x3
     a48:	10 40 02 10 	ld32	r16,r16
     a4c:	0d 44 55 38 	wl16	r9,0x22b8
     a50:	0d 60 01 23 	wh16	r9,0x3
     a54:	10 40 01 29 	ld32	r9,r9
     a58:	00 40 01 10 	mull	r8,r16
     a5c:	20 70 03 e2 	movepc	rret,8
     a60:	14 30 fd 6c 	br	10 <compare>,#al
     a64:	00 10 00 41 	add	r2,1
     a68:	0d 40 19 04 	wl16	r8,0xc4
     a6c:	0d 60 01 03 	wh16	r8,0x3
     a70:	10 40 01 08 	ld32	r8,r8
     a74:	0d 42 3a 00 	wl16	r16,0x11c0
     a78:	0d 60 02 03 	wh16	r16,0x3
     a7c:	10 40 02 10 	ld32	r16,r16
     a80:	0d 44 55 3c 	wl16	r9,0x22bc
     a84:	0d 60 01 23 	wh16	r9,0x3
     a88:	10 40 01 29 	ld32	r9,r9
     a8c:	00 40 01 10 	mull	r8,r16
     a90:	20 70 03 e2 	movepc	rret,8
     a94:	14 30 fd 5f 	br	10 <compare>,#al
     a98:	00 10 00 41 	add	r2,1
     a9c:	0d 40 19 08 	wl16	r8,0xc8
     aa0:	0d 60 01 03 	wh16	r8,0x3
     aa4:	10 40 01 08 	ld32	r8,r8
     aa8:	0d 42 3a 04 	wl16	r16,0x11c4
     aac:	0d 60 02 03 	wh16	r16,0x3
     ab0:	10 40 02 10 	ld32	r16,r16
     ab4:	0d 44 59 20 	wl16	r9,0x22c0
     ab8:	0d 60 01 23 	wh16	r9,0x3
     abc:	10 40 01 29 	ld32	r9,r9
     ac0:	00 40 01 10 	mull	r8,r16
     ac4:	20 70 03 e2 	movepc	rret,8
     ac8:	14 30 fd 52 	br	10 <compare>,#al
     acc:	00 10 00 41 	add	r2,1
     ad0:	0d 40 19 0c 	wl16	r8,0xcc
     ad4:	0d 60 01 03 	wh16	r8,0x3
     ad8:	10 40 01 08 	ld32	r8,r8
     adc:	0d 42 3a 08 	wl16	r16,0x11c8
     ae0:	0d 60 02 03 	wh16	r16,0x3
     ae4:	10 40 02 10 	ld32	r16,r16
     ae8:	0d 44 59 24 	wl16	r9,0x22c4
     aec:	0d 60 01 23 	wh16	r9,0x3
     af0:	10 40 01 29 	ld32	r9,r9
     af4:	00 40 01 10 	mull	r8,r16
     af8:	20 70 03 e2 	movepc	rret,8
     afc:	14 30 fd 45 	br	10 <compare>,#al
     b00:	00 10 00 41 	add	r2,1
     b04:	0d 40 19 10 	wl16	r8,0xd0
     b08:	0d 60 01 03 	wh16	r8,0x3
     b0c:	10 40 01 08 	ld32	r8,r8
     b10:	0d 42 3a 0c 	wl16	r16,0x11cc
     b14:	0d 60 02 03 	wh16	r16,0x3
     b18:	10 40 02 10 	ld32	r16,r16
     b1c:	0d 44 59 28 	wl16	r9,0x22c8
     b20:	0d 60 01 23 	wh16	r9,0x3
     b24:	10 40 01 29 	ld32	r9,r9
     b28:	00 40 01 10 	mull	r8,r16
     b2c:	20 70 03 e2 	movepc	rret,8
     b30:	14 30 fd 38 	br	10 <compare>,#al
     b34:	00 10 00 41 	add	r2,1
     b38:	0d 40 19 14 	wl16	r8,0xd4
     b3c:	0d 60 01 03 	wh16	r8,0x3
     b40:	10 40 01 08 	ld32	r8,r8
     b44:	0d 42 3a 10 	wl16	r16,0x11d0
     b48:	0d 60 02 03 	wh16	r16,0x3
     b4c:	10 40 02 10 	ld32	r16,r16
     b50:	0d 44 59 2c 	wl16	r9,0x22cc
     b54:	0d 60 01 23 	wh16	r9,0x3
     b58:	10 40 01 29 	ld32	r9,r9
     b5c:	00 40 01 10 	mull	r8,r16
     b60:	20 70 03 e2 	movepc	rret,8
     b64:	14 30 fd 2b 	br	10 <compare>,#al
     b68:	00 10 00 41 	add	r2,1
     b6c:	0d 40 19 18 	wl16	r8,0xd8
     b70:	0d 60 01 03 	wh16	r8,0x3
     b74:	10 40 01 08 	ld32	r8,r8
     b78:	0d 42 3a 14 	wl16	r16,0x11d4
     b7c:	0d 60 02 03 	wh16	r16,0x3
     b80:	10 40 02 10 	ld32	r16,r16
     b84:	0d 44 59 30 	wl16	r9,0x22d0
     b88:	0d 60 01 23 	wh16	r9,0x3
     b8c:	10 40 01 29 	ld32	r9,r9
     b90:	00 40 01 10 	mull	r8,r16
     b94:	20 70 03 e2 	movepc	rret,8
     b98:	14 30 fd 1e 	br	10 <compare>,#al
     b9c:	00 10 00 41 	add	r2,1
     ba0:	0d 40 19 1c 	wl16	r8,0xdc
     ba4:	0d 60 01 03 	wh16	r8,0x3
     ba8:	10 40 01 08 	ld32	r8,r8
     bac:	0d 42 3a 18 	wl16	r16,0x11d8
     bb0:	0d 60 02 03 	wh16	r16,0x3
     bb4:	10 40 02 10 	ld32	r16,r16
     bb8:	0d 44 59 34 	wl16	r9,0x22d4
     bbc:	0d 60 01 23 	wh16	r9,0x3
     bc0:	10 40 01 29 	ld32	r9,r9
     bc4:	00 40 01 10 	mull	r8,r16
     bc8:	20 70 03 e2 	movepc	rret,8
     bcc:	14 30 fd 11 	br	10 <compare>,#al
     bd0:	00 10 00 41 	add	r2,1
     bd4:	0d 40 1d 00 	wl16	r8,0xe0
     bd8:	0d 60 01 03 	wh16	r8,0x3
     bdc:	10 40 01 08 	ld32	r8,r8
     be0:	0d 42 3a 1c 	wl16	r16,0x11dc
     be4:	0d 60 02 03 	wh16	r16,0x3
     be8:	10 40 02 10 	ld32	r16,r16
     bec:	0d 44 59 38 	wl16	r9,0x22d8
     bf0:	0d 60 01 23 	wh16	r9,0x3
     bf4:	10 40 01 29 	ld32	r9,r9
     bf8:	00 40 01 10 	mull	r8,r16
     bfc:	20 70 03 e2 	movepc	rret,8
     c00:	14 30 fd 04 	br	10 <compare>,#al
     c04:	00 10 00 41 	add	r2,1
     c08:	0d 40 1d 04 	wl16	r8,0xe4
     c0c:	0d 60 01 03 	wh16	r8,0x3
     c10:	10 40 01 08 	ld32	r8,r8
     c14:	0d 42 3e 00 	wl16	r16,0x11e0
     c18:	0d 60 02 03 	wh16	r16,0x3
     c1c:	10 40 02 10 	ld32	r16,r16
     c20:	0d 44 59 3c 	wl16	r9,0x22dc
     c24:	0d 60 01 23 	wh16	r9,0x3
     c28:	10 40 01 29 	ld32	r9,r9
     c2c:	00 40 01 10 	mull	r8,r16
     c30:	20 70 03 e2 	movepc	rret,8
     c34:	14 30 fc f7 	br	10 <compare>,#al
     c38:	00 10 00 41 	add	r2,1
     c3c:	0d 40 1d 08 	wl16	r8,0xe8
     c40:	0d 60 01 03 	wh16	r8,0x3
     c44:	10 40 01 08 	ld32	r8,r8
     c48:	0d 42 3e 04 	wl16	r16,0x11e4
     c4c:	0d 60 02 03 	wh16	r16,0x3
     c50:	10 40 02 10 	ld32	r16,r16
     c54:	0d 44 5d 20 	wl16	r9,0x22e0
     c58:	0d 60 01 23 	wh16	r9,0x3
     c5c:	10 40 01 29 	ld32	r9,r9
     c60:	00 40 01 10 	mull	r8,r16
     c64:	20 70 03 e2 	movepc	rret,8
     c68:	14 30 fc ea 	br	10 <compare>,#al
     c6c:	00 10 00 41 	add	r2,1
     c70:	0d 40 1d 0c 	wl16	r8,0xec
     c74:	0d 60 01 03 	wh16	r8,0x3
     c78:	10 40 01 08 	ld32	r8,r8
     c7c:	0d 42 3e 08 	wl16	r16,0x11e8
     c80:	0d 60 02 03 	wh16	r16,0x3
     c84:	10 40 02 10 	ld32	r16,r16
     c88:	0d 44 5d 24 	wl16	r9,0x22e4
     c8c:	0d 60 01 23 	wh16	r9,0x3
     c90:	10 40 01 29 	ld32	r9,r9
     c94:	00 40 01 10 	mull	r8,r16
     c98:	20 70 03 e2 	movepc	rret,8
     c9c:	14 30 fc dd 	br	10 <compare>,#al
     ca0:	00 10 00 41 	add	r2,1
     ca4:	0d 40 1d 10 	wl16	r8,0xf0
     ca8:	0d 60 01 03 	wh16	r8,0x3
     cac:	10 40 01 08 	ld32	r8,r8
     cb0:	0d 42 3e 0c 	wl16	r16,0x11ec
     cb4:	0d 60 02 03 	wh16	r16,0x3
     cb8:	10 40 02 10 	ld32	r16,r16
     cbc:	0d 44 5d 28 	wl16	r9,0x22e8
     cc0:	0d 60 01 23 	wh16	r9,0x3
     cc4:	10 40 01 29 	ld32	r9,r9
     cc8:	00 40 01 10 	mull	r8,r16
     ccc:	20 70 03 e2 	movepc	rret,8
     cd0:	14 30 fc d0 	br	10 <compare>,#al
     cd4:	00 10 00 41 	add	r2,1
     cd8:	0d 40 1d 14 	wl16	r8,0xf4
     cdc:	0d 60 01 03 	wh16	r8,0x3
     ce0:	10 40 01 08 	ld32	r8,r8
     ce4:	0d 42 3e 10 	wl16	r16,0x11f0
     ce8:	0d 60 02 03 	wh16	r16,0x3
     cec:	10 40 02 10 	ld32	r16,r16
     cf0:	0d 44 5d 2c 	wl16	r9,0x22ec
     cf4:	0d 60 01 23 	wh16	r9,0x3
     cf8:	10 40 01 29 	ld32	r9,r9
     cfc:	00 40 01 10 	mull	r8,r16
     d00:	20 70 03 e2 	movepc	rret,8
     d04:	14 30 fc c3 	br	10 <compare>,#al
     d08:	00 10 00 41 	add	r2,1
     d0c:	0d 40 1d 18 	wl16	r8,0xf8
     d10:	0d 60 01 03 	wh16	r8,0x3
     d14:	10 40 01 08 	ld32	r8,r8
     d18:	0d 42 3e 14 	wl16	r16,0x11f4
     d1c:	0d 60 02 03 	wh16	r16,0x3
     d20:	10 40 02 10 	ld32	r16,r16
     d24:	0d 44 5d 30 	wl16	r9,0x22f0
     d28:	0d 60 01 23 	wh16	r9,0x3
     d2c:	10 40 01 29 	ld32	r9,r9
     d30:	00 40 01 10 	mull	r8,r16
     d34:	20 70 03 e2 	movepc	rret,8
     d38:	14 30 fc b6 	br	10 <compare>,#al
     d3c:	00 10 00 41 	add	r2,1
     d40:	0d 40 1d 1c 	wl16	r8,0xfc
     d44:	0d 60 01 03 	wh16	r8,0x3
     d48:	10 40 01 08 	ld32	r8,r8
     d4c:	0d 42 3e 18 	wl16	r16,0x11f8
     d50:	0d 60 02 03 	wh16	r16,0x3
     d54:	10 40 02 10 	ld32	r16,r16
     d58:	0d 44 5d 34 	wl16	r9,0x22f4
     d5c:	0d 60 01 23 	wh16	r9,0x3
     d60:	10 40 01 29 	ld32	r9,r9
     d64:	00 40 01 10 	mull	r8,r16
     d68:	20 70 03 e2 	movepc	rret,8
     d6c:	14 30 fc a9 	br	10 <compare>,#al
     d70:	00 10 00 41 	add	r2,1
     d74:	0d 40 21 00 	wl16	r8,0x100
     d78:	0d 60 01 03 	wh16	r8,0x3
     d7c:	10 40 01 08 	ld32	r8,r8
     d80:	0d 42 3e 1c 	wl16	r16,0x11fc
     d84:	0d 60 02 03 	wh16	r16,0x3
     d88:	10 40 02 10 	ld32	r16,r16
     d8c:	0d 44 5d 38 	wl16	r9,0x22f8
     d90:	0d 60 01 23 	wh16	r9,0x3
     d94:	10 40 01 29 	ld32	r9,r9
     d98:	00 40 01 10 	mull	r8,r16
     d9c:	20 70 03 e2 	movepc	rret,8
     da0:	14 30 fc 9c 	br	10 <compare>,#al
     da4:	00 10 00 41 	add	r2,1
     da8:	0d 40 21 04 	wl16	r8,0x104
     dac:	0d 60 01 03 	wh16	r8,0x3
     db0:	10 40 01 08 	ld32	r8,r8
     db4:	0d 42 42 00 	wl16	r16,0x1200
     db8:	0d 60 02 03 	wh16	r16,0x3
     dbc:	10 40 02 10 	ld32	r16,r16
     dc0:	0d 44 5d 3c 	wl16	r9,0x22fc
     dc4:	0d 60 01 23 	wh16	r9,0x3
     dc8:	10 40 01 29 	ld32	r9,r9
     dcc:	00 40 01 10 	mull	r8,r16
     dd0:	20 70 03 e2 	movepc	rret,8
     dd4:	14 30 fc 8f 	br	10 <compare>,#al
     dd8:	00 10 00 41 	add	r2,1
     ddc:	0d 40 21 08 	wl16	r8,0x108
     de0:	0d 60 01 03 	wh16	r8,0x3
     de4:	10 40 01 08 	ld32	r8,r8
     de8:	0d 42 42 04 	wl16	r16,0x1204
     dec:	0d 60 02 03 	wh16	r16,0x3
     df0:	10 40 02 10 	ld32	r16,r16
     df4:	0d 44 61 20 	wl16	r9,0x2300
     df8:	0d 60 01 23 	wh16	r9,0x3
     dfc:	10 40 01 29 	ld32	r9,r9
     e00:	00 40 01 10 	mull	r8,r16
     e04:	20 70 03 e2 	movepc	rret,8
     e08:	14 30 fc 82 	br	10 <compare>,#al
     e0c:	00 10 00 41 	add	r2,1
     e10:	0d 40 21 0c 	wl16	r8,0x10c
     e14:	0d 60 01 03 	wh16	r8,0x3
     e18:	10 40 01 08 	ld32	r8,r8
     e1c:	0d 42 42 08 	wl16	r16,0x1208
     e20:	0d 60 02 03 	wh16	r16,0x3
     e24:	10 40 02 10 	ld32	r16,r16
     e28:	0d 44 61 24 	wl16	r9,0x2304
     e2c:	0d 60 01 23 	wh16	r9,0x3
     e30:	10 40 01 29 	ld32	r9,r9
     e34:	00 40 01 10 	mull	r8,r16
     e38:	20 70 03 e2 	movepc	rret,8
     e3c:	14 30 fc 75 	br	10 <compare>,#al
     e40:	00 10 00 41 	add	r2,1
     e44:	0d 40 21 10 	wl16	r8,0x110
     e48:	0d 60 01 03 	wh16	r8,0x3
     e4c:	10 40 01 08 	ld32	r8,r8
     e50:	0d 42 42 0c 	wl16	r16,0x120c
     e54:	0d 60 02 03 	wh16	r16,0x3
     e58:	10 40 02 10 	ld32	r16,r16
     e5c:	0d 44 61 28 	wl16	r9,0x2308
     e60:	0d 60 01 23 	wh16	r9,0x3
     e64:	10 40 01 29 	ld32	r9,r9
     e68:	00 40 01 10 	mull	r8,r16
     e6c:	20 70 03 e2 	movepc	rret,8
     e70:	14 30 fc 68 	br	10 <compare>,#al
     e74:	00 10 00 41 	add	r2,1
     e78:	0d 40 21 14 	wl16	r8,0x114
     e7c:	0d 60 01 03 	wh16	r8,0x3
     e80:	10 40 01 08 	ld32	r8,r8
     e84:	0d 42 42 10 	wl16	r16,0x1210
     e88:	0d 60 02 03 	wh16	r16,0x3
     e8c:	10 40 02 10 	ld32	r16,r16
     e90:	0d 44 61 2c 	wl16	r9,0x230c
     e94:	0d 60 01 23 	wh16	r9,0x3
     e98:	10 40 01 29 	ld32	r9,r9
     e9c:	00 40 01 10 	mull	r8,r16
     ea0:	20 70 03 e2 	movepc	rret,8
     ea4:	14 30 fc 5b 	br	10 <compare>,#al
     ea8:	00 10 00 41 	add	r2,1
     eac:	0d 40 21 18 	wl16	r8,0x118
     eb0:	0d 60 01 03 	wh16	r8,0x3
     eb4:	10 40 01 08 	ld32	r8,r8
     eb8:	0d 42 42 14 	wl16	r16,0x1214
     ebc:	0d 60 02 03 	wh16	r16,0x3
     ec0:	10 40 02 10 	ld32	r16,r16
     ec4:	0d 44 61 30 	wl16	r9,0x2310
     ec8:	0d 60 01 23 	wh16	r9,0x3
     ecc:	10 40 01 29 	ld32	r9,r9
     ed0:	00 40 01 10 	mull	r8,r16
     ed4:	20 70 03 e2 	movepc	rret,8
     ed8:	14 30 fc 4e 	br	10 <compare>,#al
     edc:	00 10 00 41 	add	r2,1
     ee0:	0d 40 21 1c 	wl16	r8,0x11c
     ee4:	0d 60 01 03 	wh16	r8,0x3
     ee8:	10 40 01 08 	ld32	r8,r8
     eec:	0d 42 42 18 	wl16	r16,0x1218
     ef0:	0d 60 02 03 	wh16	r16,0x3
     ef4:	10 40 02 10 	ld32	r16,r16
     ef8:	0d 44 61 34 	wl16	r9,0x2314
     efc:	0d 60 01 23 	wh16	r9,0x3
     f00:	10 40 01 29 	ld32	r9,r9
     f04:	00 40 01 10 	mull	r8,r16
     f08:	20 70 03 e2 	movepc	rret,8
     f0c:	14 30 fc 41 	br	10 <compare>,#al
     f10:	00 10 00 41 	add	r2,1
     f14:	0d 40 25 00 	wl16	r8,0x120
     f18:	0d 60 01 03 	wh16	r8,0x3
     f1c:	10 40 01 08 	ld32	r8,r8
     f20:	0d 42 42 1c 	wl16	r16,0x121c
     f24:	0d 60 02 03 	wh16	r16,0x3
     f28:	10 40 02 10 	ld32	r16,r16
     f2c:	0d 44 61 38 	wl16	r9,0x2318
     f30:	0d 60 01 23 	wh16	r9,0x3
     f34:	10 40 01 29 	ld32	r9,r9
     f38:	00 40 01 10 	mull	r8,r16
     f3c:	20 70 03 e2 	movepc	rret,8
     f40:	14 30 fc 34 	br	10 <compare>,#al
     f44:	00 10 00 41 	add	r2,1
     f48:	0d 40 25 04 	wl16	r8,0x124
     f4c:	0d 60 01 03 	wh16	r8,0x3
     f50:	10 40 01 08 	ld32	r8,r8
     f54:	0d 42 46 00 	wl16	r16,0x1220
     f58:	0d 60 02 03 	wh16	r16,0x3
     f5c:	10 40 02 10 	ld32	r16,r16
     f60:	0d 44 61 3c 	wl16	r9,0x231c
     f64:	0d 60 01 23 	wh16	r9,0x3
     f68:	10 40 01 29 	ld32	r9,r9
     f6c:	00 40 01 10 	mull	r8,r16
     f70:	20 70 03 e2 	movepc	rret,8
     f74:	14 30 fc 27 	br	10 <compare>,#al
     f78:	00 10 00 41 	add	r2,1
     f7c:	0d 40 25 08 	wl16	r8,0x128
     f80:	0d 60 01 03 	wh16	r8,0x3
     f84:	10 40 01 08 	ld32	r8,r8
     f88:	0d 42 46 04 	wl16	r16,0x1224
     f8c:	0d 60 02 03 	wh16	r16,0x3
     f90:	10 40 02 10 	ld32	r16,r16
     f94:	0d 44 65 20 	wl16	r9,0x2320
     f98:	0d 60 01 23 	wh16	r9,0x3
     f9c:	10 40 01 29 	ld32	r9,r9
     fa0:	00 40 01 10 	mull	r8,r16
     fa4:	20 70 03 e2 	movepc	rret,8
     fa8:	14 30 fc 1a 	br	10 <compare>,#al
     fac:	00 10 00 41 	add	r2,1
     fb0:	0d 40 25 0c 	wl16	r8,0x12c
     fb4:	0d 60 01 03 	wh16	r8,0x3
     fb8:	10 40 01 08 	ld32	r8,r8
     fbc:	0d 42 46 08 	wl16	r16,0x1228
     fc0:	0d 60 02 03 	wh16	r16,0x3
     fc4:	10 40 02 10 	ld32	r16,r16
     fc8:	0d 44 65 24 	wl16	r9,0x2324
     fcc:	0d 60 01 23 	wh16	r9,0x3
     fd0:	10 40 01 29 	ld32	r9,r9
     fd4:	00 40 01 10 	mull	r8,r16
     fd8:	20 70 03 e2 	movepc	rret,8
     fdc:	14 30 fc 0d 	br	10 <compare>,#al
     fe0:	00 10 00 41 	add	r2,1
     fe4:	0d 40 25 10 	wl16	r8,0x130
     fe8:	0d 60 01 03 	wh16	r8,0x3
     fec:	10 40 01 08 	ld32	r8,r8
     ff0:	0d 42 46 0c 	wl16	r16,0x122c
     ff4:	0d 60 02 03 	wh16	r16,0x3
     ff8:	10 40 02 10 	ld32	r16,r16
     ffc:	0d 44 65 28 	wl16	r9,0x2328
    1000:	0d 60 01 23 	wh16	r9,0x3
    1004:	10 40 01 29 	ld32	r9,r9
    1008:	00 40 01 10 	mull	r8,r16
    100c:	20 70 03 e2 	movepc	rret,8
    1010:	14 30 fc 00 	br	10 <compare>,#al
    1014:	00 10 00 41 	add	r2,1
    1018:	0d 40 25 14 	wl16	r8,0x134
    101c:	0d 60 01 03 	wh16	r8,0x3
    1020:	10 40 01 08 	ld32	r8,r8
    1024:	0d 42 46 10 	wl16	r16,0x1230
    1028:	0d 60 02 03 	wh16	r16,0x3
    102c:	10 40 02 10 	ld32	r16,r16
    1030:	0d 44 65 2c 	wl16	r9,0x232c
    1034:	0d 60 01 23 	wh16	r9,0x3
    1038:	10 40 01 29 	ld32	r9,r9
    103c:	00 40 01 10 	mull	r8,r16
    1040:	20 70 03 e2 	movepc	rret,8
    1044:	14 30 fb f3 	br	10 <compare>,#al
    1048:	00 10 00 41 	add	r2,1
    104c:	0d 40 25 18 	wl16	r8,0x138
    1050:	0d 60 01 03 	wh16	r8,0x3
    1054:	10 40 01 08 	ld32	r8,r8
    1058:	0d 42 46 14 	wl16	r16,0x1234
    105c:	0d 60 02 03 	wh16	r16,0x3
    1060:	10 40 02 10 	ld32	r16,r16
    1064:	0d 44 65 30 	wl16	r9,0x2330
    1068:	0d 60 01 23 	wh16	r9,0x3
    106c:	10 40 01 29 	ld32	r9,r9
    1070:	00 40 01 10 	mull	r8,r16
    1074:	20 70 03 e2 	movepc	rret,8
    1078:	14 30 fb e6 	br	10 <compare>,#al
    107c:	00 10 00 41 	add	r2,1
    1080:	0d 40 25 1c 	wl16	r8,0x13c
    1084:	0d 60 01 03 	wh16	r8,0x3
    1088:	10 40 01 08 	ld32	r8,r8
    108c:	0d 42 46 18 	wl16	r16,0x1238
    1090:	0d 60 02 03 	wh16	r16,0x3
    1094:	10 40 02 10 	ld32	r16,r16
    1098:	0d 44 65 34 	wl16	r9,0x2334
    109c:	0d 60 01 23 	wh16	r9,0x3
    10a0:	10 40 01 29 	ld32	r9,r9
    10a4:	00 40 01 10 	mull	r8,r16
    10a8:	20 70 03 e2 	movepc	rret,8
    10ac:	14 30 fb d9 	br	10 <compare>,#al
    10b0:	00 10 00 41 	add	r2,1
    10b4:	0d 40 29 00 	wl16	r8,0x140
    10b8:	0d 60 01 03 	wh16	r8,0x3
    10bc:	10 40 01 08 	ld32	r8,r8
    10c0:	0d 42 46 1c 	wl16	r16,0x123c
    10c4:	0d 60 02 03 	wh16	r16,0x3
    10c8:	10 40 02 10 	ld32	r16,r16
    10cc:	0d 44 65 38 	wl16	r9,0x2338
    10d0:	0d 60 01 23 	wh16	r9,0x3
    10d4:	10 40 01 29 	ld32	r9,r9
    10d8:	00 40 01 10 	mull	r8,r16
    10dc:	20 70 03 e2 	movepc	rret,8
    10e0:	14 30 fb cc 	br	10 <compare>,#al
    10e4:	00 10 00 41 	add	r2,1
    10e8:	0d 40 29 04 	wl16	r8,0x144
    10ec:	0d 60 01 03 	wh16	r8,0x3
    10f0:	10 40 01 08 	ld32	r8,r8
    10f4:	0d 42 4a 00 	wl16	r16,0x1240
    10f8:	0d 60 02 03 	wh16	r16,0x3
    10fc:	10 40 02 10 	ld32	r16,r16
    1100:	0d 44 65 3c 	wl16	r9,0x233c
    1104:	0d 60 01 23 	wh16	r9,0x3
    1108:	10 40 01 29 	ld32	r9,r9
    110c:	00 40 01 10 	mull	r8,r16
    1110:	20 70 03 e2 	movepc	rret,8
    1114:	14 30 fb bf 	br	10 <compare>,#al
    1118:	00 10 00 41 	add	r2,1
    111c:	0d 40 29 08 	wl16	r8,0x148
    1120:	0d 60 01 03 	wh16	r8,0x3
    1124:	10 40 01 08 	ld32	r8,r8
    1128:	0d 42 4a 04 	wl16	r16,0x1244
    112c:	0d 60 02 03 	wh16	r16,0x3
    1130:	10 40 02 10 	ld32	r16,r16
    1134:	0d 44 69 20 	wl16	r9,0x2340
    1138:	0d 60 01 23 	wh16	r9,0x3
    113c:	10 40 01 29 	ld32	r9,r9
    1140:	00 40 01 10 	mull	r8,r16
    1144:	20 70 03 e2 	movepc	rret,8
    1148:	14 30 fb b2 	br	10 <compare>,#al
    114c:	00 10 00 41 	add	r2,1
    1150:	0d 40 29 0c 	wl16	r8,0x14c
    1154:	0d 60 01 03 	wh16	r8,0x3
    1158:	10 40 01 08 	ld32	r8,r8
    115c:	0d 42 4a 08 	wl16	r16,0x1248
    1160:	0d 60 02 03 	wh16	r16,0x3
    1164:	10 40 02 10 	ld32	r16,r16
    1168:	0d 44 69 24 	wl16	r9,0x2344
    116c:	0d 60 01 23 	wh16	r9,0x3
    1170:	10 40 01 29 	ld32	r9,r9
    1174:	00 40 01 10 	mull	r8,r16
    1178:	20 70 03 e2 	movepc	rret,8
    117c:	14 30 fb a5 	br	10 <compare>,#al
    1180:	00 10 00 41 	add	r2,1
    1184:	0d 40 29 10 	wl16	r8,0x150
    1188:	0d 60 01 03 	wh16	r8,0x3
    118c:	10 40 01 08 	ld32	r8,r8
    1190:	0d 42 4a 0c 	wl16	r16,0x124c
    1194:	0d 60 02 03 	wh16	r16,0x3
    1198:	10 40 02 10 	ld32	r16,r16
    119c:	0d 44 69 28 	wl16	r9,0x2348
    11a0:	0d 60 01 23 	wh16	r9,0x3
    11a4:	10 40 01 29 	ld32	r9,r9
    11a8:	00 40 01 10 	mull	r8,r16
    11ac:	20 70 03 e2 	movepc	rret,8
    11b0:	14 30 fb 98 	br	10 <compare>,#al
    11b4:	00 10 00 41 	add	r2,1
    11b8:	0d 40 29 14 	wl16	r8,0x154
    11bc:	0d 60 01 03 	wh16	r8,0x3
    11c0:	10 40 01 08 	ld32	r8,r8
    11c4:	0d 42 4a 10 	wl16	r16,0x1250
    11c8:	0d 60 02 03 	wh16	r16,0x3
    11cc:	10 40 02 10 	ld32	r16,r16
    11d0:	0d 44 69 2c 	wl16	r9,0x234c
    11d4:	0d 60 01 23 	wh16	r9,0x3
    11d8:	10 40 01 29 	ld32	r9,r9
    11dc:	00 40 01 10 	mull	r8,r16
    11e0:	20 70 03 e2 	movepc	rret,8
    11e4:	14 30 fb 8b 	br	10 <compare>,#al
    11e8:	00 10 00 41 	add	r2,1
    11ec:	0d 40 29 18 	wl16	r8,0x158
    11f0:	0d 60 01 03 	wh16	r8,0x3
    11f4:	10 40 01 08 	ld32	r8,r8
    11f8:	0d 42 4a 14 	wl16	r16,0x1254
    11fc:	0d 60 02 03 	wh16	r16,0x3
    1200:	10 40 02 10 	ld32	r16,r16
    1204:	0d 44 69 30 	wl16	r9,0x2350
    1208:	0d 60 01 23 	wh16	r9,0x3
    120c:	10 40 01 29 	ld32	r9,r9
    1210:	00 40 01 10 	mull	r8,r16
    1214:	20 70 03 e2 	movepc	rret,8
    1218:	14 30 fb 7e 	br	10 <compare>,#al
    121c:	00 10 00 41 	add	r2,1
    1220:	0d 40 29 1c 	wl16	r8,0x15c
    1224:	0d 60 01 03 	wh16	r8,0x3
    1228:	10 40 01 08 	ld32	r8,r8
    122c:	0d 42 4a 18 	wl16	r16,0x1258
    1230:	0d 60 02 03 	wh16	r16,0x3
    1234:	10 40 02 10 	ld32	r16,r16
    1238:	0d 44 69 34 	wl16	r9,0x2354
    123c:	0d 60 01 23 	wh16	r9,0x3
    1240:	10 40 01 29 	ld32	r9,r9
    1244:	00 40 01 10 	mull	r8,r16
    1248:	20 70 03 e2 	movepc	rret,8
    124c:	14 30 fb 71 	br	10 <compare>,#al
    1250:	00 10 00 41 	add	r2,1
    1254:	0d 40 2d 00 	wl16	r8,0x160
    1258:	0d 60 01 03 	wh16	r8,0x3
    125c:	10 40 01 08 	ld32	r8,r8
    1260:	0d 42 4a 1c 	wl16	r16,0x125c
    1264:	0d 60 02 03 	wh16	r16,0x3
    1268:	10 40 02 10 	ld32	r16,r16
    126c:	0d 44 69 38 	wl16	r9,0x2358
    1270:	0d 60 01 23 	wh16	r9,0x3
    1274:	10 40 01 29 	ld32	r9,r9
    1278:	00 40 01 10 	mull	r8,r16
    127c:	20 70 03 e2 	movepc	rret,8
    1280:	14 30 fb 64 	br	10 <compare>,#al
    1284:	00 10 00 41 	add	r2,1
    1288:	0d 40 2d 04 	wl16	r8,0x164
    128c:	0d 60 01 03 	wh16	r8,0x3
    1290:	10 40 01 08 	ld32	r8,r8
    1294:	0d 42 4e 00 	wl16	r16,0x1260
    1298:	0d 60 02 03 	wh16	r16,0x3
    129c:	10 40 02 10 	ld32	r16,r16
    12a0:	0d 44 69 3c 	wl16	r9,0x235c
    12a4:	0d 60 01 23 	wh16	r9,0x3
    12a8:	10 40 01 29 	ld32	r9,r9
    12ac:	00 40 01 10 	mull	r8,r16
    12b0:	20 70 03 e2 	movepc	rret,8
    12b4:	14 30 fb 57 	br	10 <compare>,#al
    12b8:	00 10 00 41 	add	r2,1
    12bc:	0d 40 2d 08 	wl16	r8,0x168
    12c0:	0d 60 01 03 	wh16	r8,0x3
    12c4:	10 40 01 08 	ld32	r8,r8
    12c8:	0d 42 4e 04 	wl16	r16,0x1264
    12cc:	0d 60 02 03 	wh16	r16,0x3
    12d0:	10 40 02 10 	ld32	r16,r16
    12d4:	0d 44 6d 20 	wl16	r9,0x2360
    12d8:	0d 60 01 23 	wh16	r9,0x3
    12dc:	10 40 01 29 	ld32	r9,r9
    12e0:	00 40 01 10 	mull	r8,r16
    12e4:	20 70 03 e2 	movepc	rret,8
    12e8:	14 30 fb 4a 	br	10 <compare>,#al
    12ec:	00 10 00 41 	add	r2,1
    12f0:	0d 40 2d 0c 	wl16	r8,0x16c
    12f4:	0d 60 01 03 	wh16	r8,0x3
    12f8:	10 40 01 08 	ld32	r8,r8
    12fc:	0d 42 4e 08 	wl16	r16,0x1268
    1300:	0d 60 02 03 	wh16	r16,0x3
    1304:	10 40 02 10 	ld32	r16,r16
    1308:	0d 44 6d 24 	wl16	r9,0x2364
    130c:	0d 60 01 23 	wh16	r9,0x3
    1310:	10 40 01 29 	ld32	r9,r9
    1314:	00 40 01 10 	mull	r8,r16
    1318:	20 70 03 e2 	movepc	rret,8
    131c:	14 30 fb 3d 	br	10 <compare>,#al
    1320:	00 10 00 41 	add	r2,1
    1324:	0d 40 2d 10 	wl16	r8,0x170
    1328:	0d 60 01 03 	wh16	r8,0x3
    132c:	10 40 01 08 	ld32	r8,r8
    1330:	0d 42 4e 0c 	wl16	r16,0x126c
    1334:	0d 60 02 03 	wh16	r16,0x3
    1338:	10 40 02 10 	ld32	r16,r16
    133c:	0d 44 6d 28 	wl16	r9,0x2368
    1340:	0d 60 01 23 	wh16	r9,0x3
    1344:	10 40 01 29 	ld32	r9,r9
    1348:	00 40 01 10 	mull	r8,r16
    134c:	20 70 03 e2 	movepc	rret,8
    1350:	14 30 fb 30 	br	10 <compare>,#al
    1354:	00 10 00 41 	add	r2,1
    1358:	0d 40 2d 14 	wl16	r8,0x174
    135c:	0d 60 01 03 	wh16	r8,0x3
    1360:	10 40 01 08 	ld32	r8,r8
    1364:	0d 42 4e 10 	wl16	r16,0x1270
    1368:	0d 60 02 03 	wh16	r16,0x3
    136c:	10 40 02 10 	ld32	r16,r16
    1370:	0d 44 6d 2c 	wl16	r9,0x236c
    1374:	0d 60 01 23 	wh16	r9,0x3
    1378:	10 40 01 29 	ld32	r9,r9
    137c:	00 40 01 10 	mull	r8,r16
    1380:	20 70 03 e2 	movepc	rret,8
    1384:	14 30 fb 23 	br	10 <compare>,#al
    1388:	00 10 00 41 	add	r2,1
    138c:	0d 40 2d 18 	wl16	r8,0x178
    1390:	0d 60 01 03 	wh16	r8,0x3
    1394:	10 40 01 08 	ld32	r8,r8
    1398:	0d 42 4e 14 	wl16	r16,0x1274
    139c:	0d 60 02 03 	wh16	r16,0x3
    13a0:	10 40 02 10 	ld32	r16,r16
    13a4:	0d 44 6d 30 	wl16	r9,0x2370
    13a8:	0d 60 01 23 	wh16	r9,0x3
    13ac:	10 40 01 29 	ld32	r9,r9
    13b0:	00 40 01 10 	mull	r8,r16
    13b4:	20 70 03 e2 	movepc	rret,8
    13b8:	14 30 fb 16 	br	10 <compare>,#al
    13bc:	00 10 00 41 	add	r2,1
    13c0:	0d 40 2d 1c 	wl16	r8,0x17c
    13c4:	0d 60 01 03 	wh16	r8,0x3
    13c8:	10 40 01 08 	ld32	r8,r8
    13cc:	0d 42 4e 18 	wl16	r16,0x1278
    13d0:	0d 60 02 03 	wh16	r16,0x3
    13d4:	10 40 02 10 	ld32	r16,r16
    13d8:	0d 44 6d 34 	wl16	r9,0x2374
    13dc:	0d 60 01 23 	wh16	r9,0x3
    13e0:	10 40 01 29 	ld32	r9,r9
    13e4:	00 40 01 10 	mull	r8,r16
    13e8:	20 70 03 e2 	movepc	rret,8
    13ec:	14 30 fb 09 	br	10 <compare>,#al
    13f0:	00 10 00 41 	add	r2,1
    13f4:	0d 40 31 00 	wl16	r8,0x180
    13f8:	0d 60 01 03 	wh16	r8,0x3
    13fc:	10 40 01 08 	ld32	r8,r8
    1400:	0d 42 4e 1c 	wl16	r16,0x127c
    1404:	0d 60 02 03 	wh16	r16,0x3
    1408:	10 40 02 10 	ld32	r16,r16
    140c:	0d 44 6d 38 	wl16	r9,0x2378
    1410:	0d 60 01 23 	wh16	r9,0x3
    1414:	10 40 01 29 	ld32	r9,r9
    1418:	00 40 01 10 	mull	r8,r16
    141c:	20 70 03 e2 	movepc	rret,8
    1420:	14 30 fa fc 	br	10 <compare>,#al
    1424:	00 10 00 41 	add	r2,1
    1428:	0d 40 31 04 	wl16	r8,0x184
    142c:	0d 60 01 03 	wh16	r8,0x3
    1430:	10 40 01 08 	ld32	r8,r8
    1434:	0d 42 52 00 	wl16	r16,0x1280
    1438:	0d 60 02 03 	wh16	r16,0x3
    143c:	10 40 02 10 	ld32	r16,r16
    1440:	0d 44 6d 3c 	wl16	r9,0x237c
    1444:	0d 60 01 23 	wh16	r9,0x3
    1448:	10 40 01 29 	ld32	r9,r9
    144c:	00 40 01 10 	mull	r8,r16
    1450:	20 70 03 e2 	movepc	rret,8
    1454:	14 30 fa ef 	br	10 <compare>,#al
    1458:	00 10 00 41 	add	r2,1
    145c:	0d 40 31 08 	wl16	r8,0x188
    1460:	0d 60 01 03 	wh16	r8,0x3
    1464:	10 40 01 08 	ld32	r8,r8
    1468:	0d 42 52 04 	wl16	r16,0x1284
    146c:	0d 60 02 03 	wh16	r16,0x3
    1470:	10 40 02 10 	ld32	r16,r16
    1474:	0d 44 71 20 	wl16	r9,0x2380
    1478:	0d 60 01 23 	wh16	r9,0x3
    147c:	10 40 01 29 	ld32	r9,r9
    1480:	00 40 01 10 	mull	r8,r16
    1484:	20 70 03 e2 	movepc	rret,8
    1488:	14 30 fa e2 	br	10 <compare>,#al
    148c:	00 10 00 41 	add	r2,1
    1490:	0d 40 31 0c 	wl16	r8,0x18c
    1494:	0d 60 01 03 	wh16	r8,0x3
    1498:	10 40 01 08 	ld32	r8,r8
    149c:	0d 42 52 08 	wl16	r16,0x1288
    14a0:	0d 60 02 03 	wh16	r16,0x3
    14a4:	10 40 02 10 	ld32	r16,r16
    14a8:	0d 44 71 24 	wl16	r9,0x2384
    14ac:	0d 60 01 23 	wh16	r9,0x3
    14b0:	10 40 01 29 	ld32	r9,r9
    14b4:	00 40 01 10 	mull	r8,r16
    14b8:	20 70 03 e2 	movepc	rret,8
    14bc:	14 30 fa d5 	br	10 <compare>,#al
    14c0:	00 10 00 41 	add	r2,1
    14c4:	0d 40 31 10 	wl16	r8,0x190
    14c8:	0d 60 01 03 	wh16	r8,0x3
    14cc:	10 40 01 08 	ld32	r8,r8
    14d0:	0d 42 52 0c 	wl16	r16,0x128c
    14d4:	0d 60 02 03 	wh16	r16,0x3
    14d8:	10 40 02 10 	ld32	r16,r16
    14dc:	0d 44 71 28 	wl16	r9,0x2388
    14e0:	0d 60 01 23 	wh16	r9,0x3
    14e4:	10 40 01 29 	ld32	r9,r9
    14e8:	00 40 01 10 	mull	r8,r16
    14ec:	20 70 03 e2 	movepc	rret,8
    14f0:	14 30 fa c8 	br	10 <compare>,#al
    14f4:	00 10 00 41 	add	r2,1
    14f8:	0d 40 31 14 	wl16	r8,0x194
    14fc:	0d 60 01 03 	wh16	r8,0x3
    1500:	10 40 01 08 	ld32	r8,r8
    1504:	0d 42 52 10 	wl16	r16,0x1290
    1508:	0d 60 02 03 	wh16	r16,0x3
    150c:	10 40 02 10 	ld32	r16,r16
    1510:	0d 44 71 2c 	wl16	r9,0x238c
    1514:	0d 60 01 23 	wh16	r9,0x3
    1518:	10 40 01 29 	ld32	r9,r9
    151c:	00 40 01 10 	mull	r8,r16
    1520:	20 70 03 e2 	movepc	rret,8
    1524:	14 30 fa bb 	br	10 <compare>,#al
    1528:	00 10 00 41 	add	r2,1
    152c:	0d 40 31 18 	wl16	r8,0x198
    1530:	0d 60 01 03 	wh16	r8,0x3
    1534:	10 40 01 08 	ld32	r8,r8
    1538:	0d 42 52 14 	wl16	r16,0x1294
    153c:	0d 60 02 03 	wh16	r16,0x3
    1540:	10 40 02 10 	ld32	r16,r16
    1544:	0d 44 71 30 	wl16	r9,0x2390
    1548:	0d 60 01 23 	wh16	r9,0x3
    154c:	10 40 01 29 	ld32	r9,r9
    1550:	00 40 01 10 	mull	r8,r16
    1554:	20 70 03 e2 	movepc	rret,8
    1558:	14 30 fa ae 	br	10 <compare>,#al
    155c:	00 10 00 41 	add	r2,1
    1560:	0d 40 31 1c 	wl16	r8,0x19c
    1564:	0d 60 01 03 	wh16	r8,0x3
    1568:	10 40 01 08 	ld32	r8,r8
    156c:	0d 42 52 18 	wl16	r16,0x1298
    1570:	0d 60 02 03 	wh16	r16,0x3
    1574:	10 40 02 10 	ld32	r16,r16
    1578:	0d 44 71 34 	wl16	r9,0x2394
    157c:	0d 60 01 23 	wh16	r9,0x3
    1580:	10 40 01 29 	ld32	r9,r9
    1584:	00 40 01 10 	mull	r8,r16
    1588:	20 70 03 e2 	movepc	rret,8
    158c:	14 30 fa a1 	br	10 <compare>,#al
    1590:	00 10 00 41 	add	r2,1
    1594:	0d 40 35 00 	wl16	r8,0x1a0
    1598:	0d 60 01 03 	wh16	r8,0x3
    159c:	10 40 01 08 	ld32	r8,r8
    15a0:	0d 42 52 1c 	wl16	r16,0x129c
    15a4:	0d 60 02 03 	wh16	r16,0x3
    15a8:	10 40 02 10 	ld32	r16,r16
    15ac:	0d 44 71 38 	wl16	r9,0x2398
    15b0:	0d 60 01 23 	wh16	r9,0x3
    15b4:	10 40 01 29 	ld32	r9,r9
    15b8:	00 40 01 10 	mull	r8,r16
    15bc:	20 70 03 e2 	movepc	rret,8
    15c0:	14 30 fa 94 	br	10 <compare>,#al
    15c4:	00 10 00 41 	add	r2,1
    15c8:	0d 40 35 04 	wl16	r8,0x1a4
    15cc:	0d 60 01 03 	wh16	r8,0x3
    15d0:	10 40 01 08 	ld32	r8,r8
    15d4:	0d 42 56 00 	wl16	r16,0x12a0
    15d8:	0d 60 02 03 	wh16	r16,0x3
    15dc:	10 40 02 10 	ld32	r16,r16
    15e0:	0d 44 71 3c 	wl16	r9,0x239c
    15e4:	0d 60 01 23 	wh16	r9,0x3
    15e8:	10 40 01 29 	ld32	r9,r9
    15ec:	00 40 01 10 	mull	r8,r16
    15f0:	20 70 03 e2 	movepc	rret,8
    15f4:	14 30 fa 87 	br	10 <compare>,#al
    15f8:	00 10 00 41 	add	r2,1
    15fc:	0d 40 35 08 	wl16	r8,0x1a8
    1600:	0d 60 01 03 	wh16	r8,0x3
    1604:	10 40 01 08 	ld32	r8,r8
    1608:	0d 42 56 04 	wl16	r16,0x12a4
    160c:	0d 60 02 03 	wh16	r16,0x3
    1610:	10 40 02 10 	ld32	r16,r16
    1614:	0d 44 75 20 	wl16	r9,0x23a0
    1618:	0d 60 01 23 	wh16	r9,0x3
    161c:	10 40 01 29 	ld32	r9,r9
    1620:	00 40 01 10 	mull	r8,r16
    1624:	20 70 03 e2 	movepc	rret,8
    1628:	14 30 fa 7a 	br	10 <compare>,#al
    162c:	00 10 00 41 	add	r2,1
    1630:	0d 40 35 0c 	wl16	r8,0x1ac
    1634:	0d 60 01 03 	wh16	r8,0x3
    1638:	10 40 01 08 	ld32	r8,r8
    163c:	0d 42 56 08 	wl16	r16,0x12a8
    1640:	0d 60 02 03 	wh16	r16,0x3
    1644:	10 40 02 10 	ld32	r16,r16
    1648:	0d 44 75 24 	wl16	r9,0x23a4
    164c:	0d 60 01 23 	wh16	r9,0x3
    1650:	10 40 01 29 	ld32	r9,r9
    1654:	00 40 01 10 	mull	r8,r16
    1658:	20 70 03 e2 	movepc	rret,8
    165c:	14 30 fa 6d 	br	10 <compare>,#al
    1660:	00 10 00 41 	add	r2,1
    1664:	0d 40 35 10 	wl16	r8,0x1b0
    1668:	0d 60 01 03 	wh16	r8,0x3
    166c:	10 40 01 08 	ld32	r8,r8
    1670:	0d 42 56 0c 	wl16	r16,0x12ac
    1674:	0d 60 02 03 	wh16	r16,0x3
    1678:	10 40 02 10 	ld32	r16,r16
    167c:	0d 44 75 28 	wl16	r9,0x23a8
    1680:	0d 60 01 23 	wh16	r9,0x3
    1684:	10 40 01 29 	ld32	r9,r9
    1688:	00 40 01 10 	mull	r8,r16
    168c:	20 70 03 e2 	movepc	rret,8
    1690:	14 30 fa 60 	br	10 <compare>,#al
    1694:	00 10 00 41 	add	r2,1
    1698:	0d 40 35 14 	wl16	r8,0x1b4
    169c:	0d 60 01 03 	wh16	r8,0x3
    16a0:	10 40 01 08 	ld32	r8,r8
    16a4:	0d 42 56 10 	wl16	r16,0x12b0
    16a8:	0d 60 02 03 	wh16	r16,0x3
    16ac:	10 40 02 10 	ld32	r16,r16
    16b0:	0d 44 75 2c 	wl16	r9,0x23ac
    16b4:	0d 60 01 23 	wh16	r9,0x3
    16b8:	10 40 01 29 	ld32	r9,r9
    16bc:	00 40 01 10 	mull	r8,r16
    16c0:	20 70 03 e2 	movepc	rret,8
    16c4:	14 30 fa 53 	br	10 <compare>,#al
    16c8:	00 10 00 41 	add	r2,1
    16cc:	0d 40 35 18 	wl16	r8,0x1b8
    16d0:	0d 60 01 03 	wh16	r8,0x3
    16d4:	10 40 01 08 	ld32	r8,r8
    16d8:	0d 42 56 14 	wl16	r16,0x12b4
    16dc:	0d 60 02 03 	wh16	r16,0x3
    16e0:	10 40 02 10 	ld32	r16,r16
    16e4:	0d 44 75 30 	wl16	r9,0x23b0
    16e8:	0d 60 01 23 	wh16	r9,0x3
    16ec:	10 40 01 29 	ld32	r9,r9
    16f0:	00 40 01 10 	mull	r8,r16
    16f4:	20 70 03 e2 	movepc	rret,8
    16f8:	14 30 fa 46 	br	10 <compare>,#al
    16fc:	00 10 00 41 	add	r2,1
    1700:	0d 40 35 1c 	wl16	r8,0x1bc
    1704:	0d 60 01 03 	wh16	r8,0x3
    1708:	10 40 01 08 	ld32	r8,r8
    170c:	0d 42 56 18 	wl16	r16,0x12b8
    1710:	0d 60 02 03 	wh16	r16,0x3
    1714:	10 40 02 10 	ld32	r16,r16
    1718:	0d 44 75 34 	wl16	r9,0x23b4
    171c:	0d 60 01 23 	wh16	r9,0x3
    1720:	10 40 01 29 	ld32	r9,r9
    1724:	00 40 01 10 	mull	r8,r16
    1728:	20 70 03 e2 	movepc	rret,8
    172c:	14 30 fa 39 	br	10 <compare>,#al
    1730:	00 10 00 41 	add	r2,1
    1734:	0d 40 39 00 	wl16	r8,0x1c0
    1738:	0d 60 01 03 	wh16	r8,0x3
    173c:	10 40 01 08 	ld32	r8,r8
    1740:	0d 42 56 1c 	wl16	r16,0x12bc
    1744:	0d 60 02 03 	wh16	r16,0x3
    1748:	10 40 02 10 	ld32	r16,r16
    174c:	0d 44 75 38 	wl16	r9,0x23b8
    1750:	0d 60 01 23 	wh16	r9,0x3
    1754:	10 40 01 29 	ld32	r9,r9
    1758:	00 40 01 10 	mull	r8,r16
    175c:	20 70 03 e2 	movepc	rret,8
    1760:	14 30 fa 2c 	br	10 <compare>,#al
    1764:	00 10 00 41 	add	r2,1
    1768:	0d 40 39 04 	wl16	r8,0x1c4
    176c:	0d 60 01 03 	wh16	r8,0x3
    1770:	10 40 01 08 	ld32	r8,r8
    1774:	0d 42 5a 00 	wl16	r16,0x12c0
    1778:	0d 60 02 03 	wh16	r16,0x3
    177c:	10 40 02 10 	ld32	r16,r16
    1780:	0d 44 75 3c 	wl16	r9,0x23bc
    1784:	0d 60 01 23 	wh16	r9,0x3
    1788:	10 40 01 29 	ld32	r9,r9
    178c:	00 40 01 10 	mull	r8,r16
    1790:	20 70 03 e2 	movepc	rret,8
    1794:	14 30 fa 1f 	br	10 <compare>,#al
    1798:	00 10 00 41 	add	r2,1
    179c:	0d 40 39 08 	wl16	r8,0x1c8
    17a0:	0d 60 01 03 	wh16	r8,0x3
    17a4:	10 40 01 08 	ld32	r8,r8
    17a8:	0d 42 5a 04 	wl16	r16,0x12c4
    17ac:	0d 60 02 03 	wh16	r16,0x3
    17b0:	10 40 02 10 	ld32	r16,r16
    17b4:	0d 44 79 20 	wl16	r9,0x23c0
    17b8:	0d 60 01 23 	wh16	r9,0x3
    17bc:	10 40 01 29 	ld32	r9,r9
    17c0:	00 40 01 10 	mull	r8,r16
    17c4:	20 70 03 e2 	movepc	rret,8
    17c8:	14 30 fa 12 	br	10 <compare>,#al
    17cc:	00 10 00 41 	add	r2,1
    17d0:	0d 40 39 0c 	wl16	r8,0x1cc
    17d4:	0d 60 01 03 	wh16	r8,0x3
    17d8:	10 40 01 08 	ld32	r8,r8
    17dc:	0d 42 5a 08 	wl16	r16,0x12c8
    17e0:	0d 60 02 03 	wh16	r16,0x3
    17e4:	10 40 02 10 	ld32	r16,r16
    17e8:	0d 44 79 24 	wl16	r9,0x23c4
    17ec:	0d 60 01 23 	wh16	r9,0x3
    17f0:	10 40 01 29 	ld32	r9,r9
    17f4:	00 40 01 10 	mull	r8,r16
    17f8:	20 70 03 e2 	movepc	rret,8
    17fc:	14 30 fa 05 	br	10 <compare>,#al
    1800:	00 10 00 41 	add	r2,1
    1804:	0d 40 39 10 	wl16	r8,0x1d0
    1808:	0d 60 01 03 	wh16	r8,0x3
    180c:	10 40 01 08 	ld32	r8,r8
    1810:	0d 42 5a 0c 	wl16	r16,0x12cc
    1814:	0d 60 02 03 	wh16	r16,0x3
    1818:	10 40 02 10 	ld32	r16,r16
    181c:	0d 44 79 28 	wl16	r9,0x23c8
    1820:	0d 60 01 23 	wh16	r9,0x3
    1824:	10 40 01 29 	ld32	r9,r9
    1828:	00 40 01 10 	mull	r8,r16
    182c:	20 70 03 e2 	movepc	rret,8
    1830:	14 30 f9 f8 	br	10 <compare>,#al
    1834:	00 10 00 41 	add	r2,1
    1838:	0d 40 39 14 	wl16	r8,0x1d4
    183c:	0d 60 01 03 	wh16	r8,0x3
    1840:	10 40 01 08 	ld32	r8,r8
    1844:	0d 42 5a 10 	wl16	r16,0x12d0
    1848:	0d 60 02 03 	wh16	r16,0x3
    184c:	10 40 02 10 	ld32	r16,r16
    1850:	0d 44 79 2c 	wl16	r9,0x23cc
    1854:	0d 60 01 23 	wh16	r9,0x3
    1858:	10 40 01 29 	ld32	r9,r9
    185c:	00 40 01 10 	mull	r8,r16
    1860:	20 70 03 e2 	movepc	rret,8
    1864:	14 30 f9 eb 	br	10 <compare>,#al
    1868:	00 10 00 41 	add	r2,1
    186c:	0d 40 39 18 	wl16	r8,0x1d8
    1870:	0d 60 01 03 	wh16	r8,0x3
    1874:	10 40 01 08 	ld32	r8,r8
    1878:	0d 42 5a 14 	wl16	r16,0x12d4
    187c:	0d 60 02 03 	wh16	r16,0x3
    1880:	10 40 02 10 	ld32	r16,r16
    1884:	0d 44 79 30 	wl16	r9,0x23d0
    1888:	0d 60 01 23 	wh16	r9,0x3
    188c:	10 40 01 29 	ld32	r9,r9
    1890:	00 40 01 10 	mull	r8,r16
    1894:	20 70 03 e2 	movepc	rret,8
    1898:	14 30 f9 de 	br	10 <compare>,#al
    189c:	00 10 00 41 	add	r2,1
    18a0:	0d 40 39 1c 	wl16	r8,0x1dc
    18a4:	0d 60 01 03 	wh16	r8,0x3
    18a8:	10 40 01 08 	ld32	r8,r8
    18ac:	0d 42 5a 18 	wl16	r16,0x12d8
    18b0:	0d 60 02 03 	wh16	r16,0x3
    18b4:	10 40 02 10 	ld32	r16,r16
    18b8:	0d 44 79 34 	wl16	r9,0x23d4
    18bc:	0d 60 01 23 	wh16	r9,0x3
    18c0:	10 40 01 29 	ld32	r9,r9
    18c4:	00 40 01 10 	mull	r8,r16
    18c8:	20 70 03 e2 	movepc	rret,8
    18cc:	14 30 f9 d1 	br	10 <compare>,#al
    18d0:	00 10 00 41 	add	r2,1
    18d4:	0d 40 3d 00 	wl16	r8,0x1e0
    18d8:	0d 60 01 03 	wh16	r8,0x3
    18dc:	10 40 01 08 	ld32	r8,r8
    18e0:	0d 42 5a 1c 	wl16	r16,0x12dc
    18e4:	0d 60 02 03 	wh16	r16,0x3
    18e8:	10 40 02 10 	ld32	r16,r16
    18ec:	0d 44 79 38 	wl16	r9,0x23d8
    18f0:	0d 60 01 23 	wh16	r9,0x3
    18f4:	10 40 01 29 	ld32	r9,r9
    18f8:	00 40 01 10 	mull	r8,r16
    18fc:	20 70 03 e2 	movepc	rret,8
    1900:	14 30 f9 c4 	br	10 <compare>,#al
    1904:	00 10 00 41 	add	r2,1
    1908:	0d 40 3d 04 	wl16	r8,0x1e4
    190c:	0d 60 01 03 	wh16	r8,0x3
    1910:	10 40 01 08 	ld32	r8,r8
    1914:	0d 42 5e 00 	wl16	r16,0x12e0
    1918:	0d 60 02 03 	wh16	r16,0x3
    191c:	10 40 02 10 	ld32	r16,r16
    1920:	0d 44 79 3c 	wl16	r9,0x23dc
    1924:	0d 60 01 23 	wh16	r9,0x3
    1928:	10 40 01 29 	ld32	r9,r9
    192c:	00 40 01 10 	mull	r8,r16
    1930:	20 70 03 e2 	movepc	rret,8
    1934:	14 30 f9 b7 	br	10 <compare>,#al
    1938:	00 10 00 41 	add	r2,1
    193c:	0d 40 3d 08 	wl16	r8,0x1e8
    1940:	0d 60 01 03 	wh16	r8,0x3
    1944:	10 40 01 08 	ld32	r8,r8
    1948:	0d 42 5e 04 	wl16	r16,0x12e4
    194c:	0d 60 02 03 	wh16	r16,0x3
    1950:	10 40 02 10 	ld32	r16,r16
    1954:	0d 44 7d 20 	wl16	r9,0x23e0
    1958:	0d 60 01 23 	wh16	r9,0x3
    195c:	10 40 01 29 	ld32	r9,r9
    1960:	00 40 01 10 	mull	r8,r16
    1964:	20 70 03 e2 	movepc	rret,8
    1968:	14 30 f9 aa 	br	10 <compare>,#al
    196c:	00 10 00 41 	add	r2,1
    1970:	0d 40 3d 0c 	wl16	r8,0x1ec
    1974:	0d 60 01 03 	wh16	r8,0x3
    1978:	10 40 01 08 	ld32	r8,r8
    197c:	0d 42 5e 08 	wl16	r16,0x12e8
    1980:	0d 60 02 03 	wh16	r16,0x3
    1984:	10 40 02 10 	ld32	r16,r16
    1988:	0d 44 7d 24 	wl16	r9,0x23e4
    198c:	0d 60 01 23 	wh16	r9,0x3
    1990:	10 40 01 29 	ld32	r9,r9
    1994:	00 40 01 10 	mull	r8,r16
    1998:	20 70 03 e2 	movepc	rret,8
    199c:	14 30 f9 9d 	br	10 <compare>,#al
    19a0:	00 10 00 41 	add	r2,1
    19a4:	0d 40 3d 10 	wl16	r8,0x1f0
    19a8:	0d 60 01 03 	wh16	r8,0x3
    19ac:	10 40 01 08 	ld32	r8,r8
    19b0:	0d 42 5e 0c 	wl16	r16,0x12ec
    19b4:	0d 60 02 03 	wh16	r16,0x3
    19b8:	10 40 02 10 	ld32	r16,r16
    19bc:	0d 44 7d 28 	wl16	r9,0x23e8
    19c0:	0d 60 01 23 	wh16	r9,0x3
    19c4:	10 40 01 29 	ld32	r9,r9
    19c8:	00 40 01 10 	mull	r8,r16
    19cc:	20 70 03 e2 	movepc	rret,8
    19d0:	14 30 f9 90 	br	10 <compare>,#al
    19d4:	00 10 00 41 	add	r2,1
    19d8:	0d 40 3d 14 	wl16	r8,0x1f4
    19dc:	0d 60 01 03 	wh16	r8,0x3
    19e0:	10 40 01 08 	ld32	r8,r8
    19e4:	0d 42 5e 10 	wl16	r16,0x12f0
    19e8:	0d 60 02 03 	wh16	r16,0x3
    19ec:	10 40 02 10 	ld32	r16,r16
    19f0:	0d 44 7d 2c 	wl16	r9,0x23ec
    19f4:	0d 60 01 23 	wh16	r9,0x3
    19f8:	10 40 01 29 	ld32	r9,r9
    19fc:	00 40 01 10 	mull	r8,r16
    1a00:	20 70 03 e2 	movepc	rret,8
    1a04:	14 30 f9 83 	br	10 <compare>,#al
    1a08:	00 10 00 41 	add	r2,1
    1a0c:	0d 40 3d 18 	wl16	r8,0x1f8
    1a10:	0d 60 01 03 	wh16	r8,0x3
    1a14:	10 40 01 08 	ld32	r8,r8
    1a18:	0d 42 5e 14 	wl16	r16,0x12f4
    1a1c:	0d 60 02 03 	wh16	r16,0x3
    1a20:	10 40 02 10 	ld32	r16,r16
    1a24:	0d 44 7d 30 	wl16	r9,0x23f0
    1a28:	0d 60 01 23 	wh16	r9,0x3
    1a2c:	10 40 01 29 	ld32	r9,r9
    1a30:	00 40 01 10 	mull	r8,r16
    1a34:	20 70 03 e2 	movepc	rret,8
    1a38:	14 30 f9 76 	br	10 <compare>,#al
    1a3c:	00 10 00 41 	add	r2,1
    1a40:	0d 40 3d 1c 	wl16	r8,0x1fc
    1a44:	0d 60 01 03 	wh16	r8,0x3
    1a48:	10 40 01 08 	ld32	r8,r8
    1a4c:	0d 42 5e 18 	wl16	r16,0x12f8
    1a50:	0d 60 02 03 	wh16	r16,0x3
    1a54:	10 40 02 10 	ld32	r16,r16
    1a58:	0d 44 7d 34 	wl16	r9,0x23f4
    1a5c:	0d 60 01 23 	wh16	r9,0x3
    1a60:	10 40 01 29 	ld32	r9,r9
    1a64:	00 40 01 10 	mull	r8,r16
    1a68:	20 70 03 e2 	movepc	rret,8
    1a6c:	14 30 f9 69 	br	10 <compare>,#al
    1a70:	00 10 00 41 	add	r2,1
    1a74:	0d 40 41 00 	wl16	r8,0x200
    1a78:	0d 60 01 03 	wh16	r8,0x3
    1a7c:	10 40 01 08 	ld32	r8,r8
    1a80:	0d 42 5e 1c 	wl16	r16,0x12fc
    1a84:	0d 60 02 03 	wh16	r16,0x3
    1a88:	10 40 02 10 	ld32	r16,r16
    1a8c:	0d 44 7d 38 	wl16	r9,0x23f8
    1a90:	0d 60 01 23 	wh16	r9,0x3
    1a94:	10 40 01 29 	ld32	r9,r9
    1a98:	00 40 01 10 	mull	r8,r16
    1a9c:	20 70 03 e2 	movepc	rret,8
    1aa0:	14 30 f9 5c 	br	10 <compare>,#al
    1aa4:	00 10 00 41 	add	r2,1
    1aa8:	0d 40 41 04 	wl16	r8,0x204
    1aac:	0d 60 01 03 	wh16	r8,0x3
    1ab0:	10 40 01 08 	ld32	r8,r8
    1ab4:	0d 42 62 00 	wl16	r16,0x1300
    1ab8:	0d 60 02 03 	wh16	r16,0x3
    1abc:	10 40 02 10 	ld32	r16,r16
    1ac0:	0d 44 7d 3c 	wl16	r9,0x23fc
    1ac4:	0d 60 01 23 	wh16	r9,0x3
    1ac8:	10 40 01 29 	ld32	r9,r9
    1acc:	00 40 01 10 	mull	r8,r16
    1ad0:	20 70 03 e2 	movepc	rret,8
    1ad4:	14 30 f9 4f 	br	10 <compare>,#al
    1ad8:	00 10 00 41 	add	r2,1
    1adc:	0d 40 41 08 	wl16	r8,0x208
    1ae0:	0d 60 01 03 	wh16	r8,0x3
    1ae4:	10 40 01 08 	ld32	r8,r8
    1ae8:	0d 42 62 04 	wl16	r16,0x1304
    1aec:	0d 60 02 03 	wh16	r16,0x3
    1af0:	10 40 02 10 	ld32	r16,r16
    1af4:	0d 44 81 20 	wl16	r9,0x2400
    1af8:	0d 60 01 23 	wh16	r9,0x3
    1afc:	10 40 01 29 	ld32	r9,r9
    1b00:	00 40 01 10 	mull	r8,r16
    1b04:	20 70 03 e2 	movepc	rret,8
    1b08:	14 30 f9 42 	br	10 <compare>,#al
    1b0c:	00 10 00 41 	add	r2,1
    1b10:	0d 40 41 0c 	wl16	r8,0x20c
    1b14:	0d 60 01 03 	wh16	r8,0x3
    1b18:	10 40 01 08 	ld32	r8,r8
    1b1c:	0d 42 62 08 	wl16	r16,0x1308
    1b20:	0d 60 02 03 	wh16	r16,0x3
    1b24:	10 40 02 10 	ld32	r16,r16
    1b28:	0d 44 81 24 	wl16	r9,0x2404
    1b2c:	0d 60 01 23 	wh16	r9,0x3
    1b30:	10 40 01 29 	ld32	r9,r9
    1b34:	00 40 01 10 	mull	r8,r16
    1b38:	20 70 03 e2 	movepc	rret,8
    1b3c:	14 30 f9 35 	br	10 <compare>,#al
    1b40:	00 10 00 41 	add	r2,1
    1b44:	0d 40 41 10 	wl16	r8,0x210
    1b48:	0d 60 01 03 	wh16	r8,0x3
    1b4c:	10 40 01 08 	ld32	r8,r8
    1b50:	0d 42 62 0c 	wl16	r16,0x130c
    1b54:	0d 60 02 03 	wh16	r16,0x3
    1b58:	10 40 02 10 	ld32	r16,r16
    1b5c:	0d 44 81 28 	wl16	r9,0x2408
    1b60:	0d 60 01 23 	wh16	r9,0x3
    1b64:	10 40 01 29 	ld32	r9,r9
    1b68:	00 40 01 10 	mull	r8,r16
    1b6c:	20 70 03 e2 	movepc	rret,8
    1b70:	14 30 f9 28 	br	10 <compare>,#al
    1b74:	00 10 00 41 	add	r2,1
    1b78:	0d 40 41 14 	wl16	r8,0x214
    1b7c:	0d 60 01 03 	wh16	r8,0x3
    1b80:	10 40 01 08 	ld32	r8,r8
    1b84:	0d 42 62 10 	wl16	r16,0x1310
    1b88:	0d 60 02 03 	wh16	r16,0x3
    1b8c:	10 40 02 10 	ld32	r16,r16
    1b90:	0d 44 81 2c 	wl16	r9,0x240c
    1b94:	0d 60 01 23 	wh16	r9,0x3
    1b98:	10 40 01 29 	ld32	r9,r9
    1b9c:	00 40 01 10 	mull	r8,r16
    1ba0:	20 70 03 e2 	movepc	rret,8
    1ba4:	14 30 f9 1b 	br	10 <compare>,#al
    1ba8:	00 10 00 41 	add	r2,1
    1bac:	0d 40 41 18 	wl16	r8,0x218
    1bb0:	0d 60 01 03 	wh16	r8,0x3
    1bb4:	10 40 01 08 	ld32	r8,r8
    1bb8:	0d 42 62 14 	wl16	r16,0x1314
    1bbc:	0d 60 02 03 	wh16	r16,0x3
    1bc0:	10 40 02 10 	ld32	r16,r16
    1bc4:	0d 44 81 30 	wl16	r9,0x2410
    1bc8:	0d 60 01 23 	wh16	r9,0x3
    1bcc:	10 40 01 29 	ld32	r9,r9
    1bd0:	00 40 01 10 	mull	r8,r16
    1bd4:	20 70 03 e2 	movepc	rret,8
    1bd8:	14 30 f9 0e 	br	10 <compare>,#al
    1bdc:	00 10 00 41 	add	r2,1
    1be0:	0d 40 41 1c 	wl16	r8,0x21c
    1be4:	0d 60 01 03 	wh16	r8,0x3
    1be8:	10 40 01 08 	ld32	r8,r8
    1bec:	0d 42 62 18 	wl16	r16,0x1318
    1bf0:	0d 60 02 03 	wh16	r16,0x3
    1bf4:	10 40 02 10 	ld32	r16,r16
    1bf8:	0d 44 81 34 	wl16	r9,0x2414
    1bfc:	0d 60 01 23 	wh16	r9,0x3
    1c00:	10 40 01 29 	ld32	r9,r9
    1c04:	00 40 01 10 	mull	r8,r16
    1c08:	20 70 03 e2 	movepc	rret,8
    1c0c:	14 30 f9 01 	br	10 <compare>,#al
    1c10:	00 10 00 41 	add	r2,1
    1c14:	0d 40 45 00 	wl16	r8,0x220
    1c18:	0d 60 01 03 	wh16	r8,0x3
    1c1c:	10 40 01 08 	ld32	r8,r8
    1c20:	0d 42 62 1c 	wl16	r16,0x131c
    1c24:	0d 60 02 03 	wh16	r16,0x3
    1c28:	10 40 02 10 	ld32	r16,r16
    1c2c:	0d 44 81 38 	wl16	r9,0x2418
    1c30:	0d 60 01 23 	wh16	r9,0x3
    1c34:	10 40 01 29 	ld32	r9,r9
    1c38:	00 40 01 10 	mull	r8,r16
    1c3c:	20 70 03 e2 	movepc	rret,8
    1c40:	14 30 f8 f4 	br	10 <compare>,#al
    1c44:	00 10 00 41 	add	r2,1
    1c48:	0d 40 45 04 	wl16	r8,0x224
    1c4c:	0d 60 01 03 	wh16	r8,0x3
    1c50:	10 40 01 08 	ld32	r8,r8
    1c54:	0d 42 66 00 	wl16	r16,0x1320
    1c58:	0d 60 02 03 	wh16	r16,0x3
    1c5c:	10 40 02 10 	ld32	r16,r16
    1c60:	0d 44 81 3c 	wl16	r9,0x241c
    1c64:	0d 60 01 23 	wh16	r9,0x3
    1c68:	10 40 01 29 	ld32	r9,r9
    1c6c:	00 40 01 10 	mull	r8,r16
    1c70:	20 70 03 e2 	movepc	rret,8
    1c74:	14 30 f8 e7 	br	10 <compare>,#al
    1c78:	00 10 00 41 	add	r2,1
    1c7c:	0d 40 45 08 	wl16	r8,0x228
    1c80:	0d 60 01 03 	wh16	r8,0x3
    1c84:	10 40 01 08 	ld32	r8,r8
    1c88:	0d 42 66 04 	wl16	r16,0x1324
    1c8c:	0d 60 02 03 	wh16	r16,0x3
    1c90:	10 40 02 10 	ld32	r16,r16
    1c94:	0d 44 85 20 	wl16	r9,0x2420
    1c98:	0d 60 01 23 	wh16	r9,0x3
    1c9c:	10 40 01 29 	ld32	r9,r9
    1ca0:	00 40 01 10 	mull	r8,r16
    1ca4:	20 70 03 e2 	movepc	rret,8
    1ca8:	14 30 f8 da 	br	10 <compare>,#al
    1cac:	00 10 00 41 	add	r2,1
    1cb0:	0d 40 45 0c 	wl16	r8,0x22c
    1cb4:	0d 60 01 03 	wh16	r8,0x3
    1cb8:	10 40 01 08 	ld32	r8,r8
    1cbc:	0d 42 66 08 	wl16	r16,0x1328
    1cc0:	0d 60 02 03 	wh16	r16,0x3
    1cc4:	10 40 02 10 	ld32	r16,r16
    1cc8:	0d 44 85 24 	wl16	r9,0x2424
    1ccc:	0d 60 01 23 	wh16	r9,0x3
    1cd0:	10 40 01 29 	ld32	r9,r9
    1cd4:	00 40 01 10 	mull	r8,r16
    1cd8:	20 70 03 e2 	movepc	rret,8
    1cdc:	14 30 f8 cd 	br	10 <compare>,#al
    1ce0:	00 10 00 41 	add	r2,1
    1ce4:	0d 40 45 10 	wl16	r8,0x230
    1ce8:	0d 60 01 03 	wh16	r8,0x3
    1cec:	10 40 01 08 	ld32	r8,r8
    1cf0:	0d 42 66 0c 	wl16	r16,0x132c
    1cf4:	0d 60 02 03 	wh16	r16,0x3
    1cf8:	10 40 02 10 	ld32	r16,r16
    1cfc:	0d 44 85 28 	wl16	r9,0x2428
    1d00:	0d 60 01 23 	wh16	r9,0x3
    1d04:	10 40 01 29 	ld32	r9,r9
    1d08:	00 40 01 10 	mull	r8,r16
    1d0c:	20 70 03 e2 	movepc	rret,8
    1d10:	14 30 f8 c0 	br	10 <compare>,#al
    1d14:	00 10 00 41 	add	r2,1
    1d18:	0d 40 45 14 	wl16	r8,0x234
    1d1c:	0d 60 01 03 	wh16	r8,0x3
    1d20:	10 40 01 08 	ld32	r8,r8
    1d24:	0d 42 66 10 	wl16	r16,0x1330
    1d28:	0d 60 02 03 	wh16	r16,0x3
    1d2c:	10 40 02 10 	ld32	r16,r16
    1d30:	0d 44 85 2c 	wl16	r9,0x242c
    1d34:	0d 60 01 23 	wh16	r9,0x3
    1d38:	10 40 01 29 	ld32	r9,r9
    1d3c:	00 40 01 10 	mull	r8,r16
    1d40:	20 70 03 e2 	movepc	rret,8
    1d44:	14 30 f8 b3 	br	10 <compare>,#al
    1d48:	00 10 00 41 	add	r2,1
    1d4c:	0d 40 45 18 	wl16	r8,0x238
    1d50:	0d 60 01 03 	wh16	r8,0x3
    1d54:	10 40 01 08 	ld32	r8,r8
    1d58:	0d 42 66 14 	wl16	r16,0x1334
    1d5c:	0d 60 02 03 	wh16	r16,0x3
    1d60:	10 40 02 10 	ld32	r16,r16
    1d64:	0d 44 85 30 	wl16	r9,0x2430
    1d68:	0d 60 01 23 	wh16	r9,0x3
    1d6c:	10 40 01 29 	ld32	r9,r9
    1d70:	00 40 01 10 	mull	r8,r16
    1d74:	20 70 03 e2 	movepc	rret,8
    1d78:	14 30 f8 a6 	br	10 <compare>,#al
    1d7c:	00 10 00 41 	add	r2,1
    1d80:	0d 40 45 1c 	wl16	r8,0x23c
    1d84:	0d 60 01 03 	wh16	r8,0x3
    1d88:	10 40 01 08 	ld32	r8,r8
    1d8c:	0d 42 66 18 	wl16	r16,0x1338
    1d90:	0d 60 02 03 	wh16	r16,0x3
    1d94:	10 40 02 10 	ld32	r16,r16
    1d98:	0d 44 85 34 	wl16	r9,0x2434
    1d9c:	0d 60 01 23 	wh16	r9,0x3
    1da0:	10 40 01 29 	ld32	r9,r9
    1da4:	00 40 01 10 	mull	r8,r16
    1da8:	20 70 03 e2 	movepc	rret,8
    1dac:	14 30 f8 99 	br	10 <compare>,#al
    1db0:	00 10 00 41 	add	r2,1
    1db4:	0d 40 49 00 	wl16	r8,0x240
    1db8:	0d 60 01 03 	wh16	r8,0x3
    1dbc:	10 40 01 08 	ld32	r8,r8
    1dc0:	0d 42 66 1c 	wl16	r16,0x133c
    1dc4:	0d 60 02 03 	wh16	r16,0x3
    1dc8:	10 40 02 10 	ld32	r16,r16
    1dcc:	0d 44 85 38 	wl16	r9,0x2438
    1dd0:	0d 60 01 23 	wh16	r9,0x3
    1dd4:	10 40 01 29 	ld32	r9,r9
    1dd8:	00 40 01 10 	mull	r8,r16
    1ddc:	20 70 03 e2 	movepc	rret,8
    1de0:	14 30 f8 8c 	br	10 <compare>,#al
    1de4:	00 10 00 41 	add	r2,1
    1de8:	0d 40 49 04 	wl16	r8,0x244
    1dec:	0d 60 01 03 	wh16	r8,0x3
    1df0:	10 40 01 08 	ld32	r8,r8
    1df4:	0d 42 6a 00 	wl16	r16,0x1340
    1df8:	0d 60 02 03 	wh16	r16,0x3
    1dfc:	10 40 02 10 	ld32	r16,r16
    1e00:	0d 44 85 3c 	wl16	r9,0x243c
    1e04:	0d 60 01 23 	wh16	r9,0x3
    1e08:	10 40 01 29 	ld32	r9,r9
    1e0c:	00 40 01 10 	mull	r8,r16
    1e10:	20 70 03 e2 	movepc	rret,8
    1e14:	14 30 f8 7f 	br	10 <compare>,#al
    1e18:	00 10 00 41 	add	r2,1
    1e1c:	0d 40 49 08 	wl16	r8,0x248
    1e20:	0d 60 01 03 	wh16	r8,0x3
    1e24:	10 40 01 08 	ld32	r8,r8
    1e28:	0d 42 6a 04 	wl16	r16,0x1344
    1e2c:	0d 60 02 03 	wh16	r16,0x3
    1e30:	10 40 02 10 	ld32	r16,r16
    1e34:	0d 44 89 20 	wl16	r9,0x2440
    1e38:	0d 60 01 23 	wh16	r9,0x3
    1e3c:	10 40 01 29 	ld32	r9,r9
    1e40:	00 40 01 10 	mull	r8,r16
    1e44:	20 70 03 e2 	movepc	rret,8
    1e48:	14 30 f8 72 	br	10 <compare>,#al
    1e4c:	00 10 00 41 	add	r2,1
    1e50:	0d 40 49 0c 	wl16	r8,0x24c
    1e54:	0d 60 01 03 	wh16	r8,0x3
    1e58:	10 40 01 08 	ld32	r8,r8
    1e5c:	0d 42 6a 08 	wl16	r16,0x1348
    1e60:	0d 60 02 03 	wh16	r16,0x3
    1e64:	10 40 02 10 	ld32	r16,r16
    1e68:	0d 44 89 24 	wl16	r9,0x2444
    1e6c:	0d 60 01 23 	wh16	r9,0x3
    1e70:	10 40 01 29 	ld32	r9,r9
    1e74:	00 40 01 10 	mull	r8,r16
    1e78:	20 70 03 e2 	movepc	rret,8
    1e7c:	14 30 f8 65 	br	10 <compare>,#al
    1e80:	00 10 00 41 	add	r2,1
    1e84:	0d 40 49 10 	wl16	r8,0x250
    1e88:	0d 60 01 03 	wh16	r8,0x3
    1e8c:	10 40 01 08 	ld32	r8,r8
    1e90:	0d 42 6a 0c 	wl16	r16,0x134c
    1e94:	0d 60 02 03 	wh16	r16,0x3
    1e98:	10 40 02 10 	ld32	r16,r16
    1e9c:	0d 44 89 28 	wl16	r9,0x2448
    1ea0:	0d 60 01 23 	wh16	r9,0x3
    1ea4:	10 40 01 29 	ld32	r9,r9
    1ea8:	00 40 01 10 	mull	r8,r16
    1eac:	20 70 03 e2 	movepc	rret,8
    1eb0:	14 30 f8 58 	br	10 <compare>,#al
    1eb4:	00 10 00 41 	add	r2,1
    1eb8:	0d 40 49 14 	wl16	r8,0x254
    1ebc:	0d 60 01 03 	wh16	r8,0x3
    1ec0:	10 40 01 08 	ld32	r8,r8
    1ec4:	0d 42 6a 10 	wl16	r16,0x1350
    1ec8:	0d 60 02 03 	wh16	r16,0x3
    1ecc:	10 40 02 10 	ld32	r16,r16
    1ed0:	0d 44 89 2c 	wl16	r9,0x244c
    1ed4:	0d 60 01 23 	wh16	r9,0x3
    1ed8:	10 40 01 29 	ld32	r9,r9
    1edc:	00 40 01 10 	mull	r8,r16
    1ee0:	20 70 03 e2 	movepc	rret,8
    1ee4:	14 30 f8 4b 	br	10 <compare>,#al
    1ee8:	00 10 00 41 	add	r2,1
    1eec:	0d 40 49 18 	wl16	r8,0x258
    1ef0:	0d 60 01 03 	wh16	r8,0x3
    1ef4:	10 40 01 08 	ld32	r8,r8
    1ef8:	0d 42 6a 14 	wl16	r16,0x1354
    1efc:	0d 60 02 03 	wh16	r16,0x3
    1f00:	10 40 02 10 	ld32	r16,r16
    1f04:	0d 44 89 30 	wl16	r9,0x2450
    1f08:	0d 60 01 23 	wh16	r9,0x3
    1f0c:	10 40 01 29 	ld32	r9,r9
    1f10:	00 40 01 10 	mull	r8,r16
    1f14:	20 70 03 e2 	movepc	rret,8
    1f18:	14 30 f8 3e 	br	10 <compare>,#al
    1f1c:	00 10 00 41 	add	r2,1
    1f20:	0d 40 49 1c 	wl16	r8,0x25c
    1f24:	0d 60 01 03 	wh16	r8,0x3
    1f28:	10 40 01 08 	ld32	r8,r8
    1f2c:	0d 42 6a 18 	wl16	r16,0x1358
    1f30:	0d 60 02 03 	wh16	r16,0x3
    1f34:	10 40 02 10 	ld32	r16,r16
    1f38:	0d 44 89 34 	wl16	r9,0x2454
    1f3c:	0d 60 01 23 	wh16	r9,0x3
    1f40:	10 40 01 29 	ld32	r9,r9
    1f44:	00 40 01 10 	mull	r8,r16
    1f48:	20 70 03 e2 	movepc	rret,8
    1f4c:	14 30 f8 31 	br	10 <compare>,#al
    1f50:	00 10 00 41 	add	r2,1
    1f54:	0d 40 4d 00 	wl16	r8,0x260
    1f58:	0d 60 01 03 	wh16	r8,0x3
    1f5c:	10 40 01 08 	ld32	r8,r8
    1f60:	0d 42 6a 1c 	wl16	r16,0x135c
    1f64:	0d 60 02 03 	wh16	r16,0x3
    1f68:	10 40 02 10 	ld32	r16,r16
    1f6c:	0d 44 89 38 	wl16	r9,0x2458
    1f70:	0d 60 01 23 	wh16	r9,0x3
    1f74:	10 40 01 29 	ld32	r9,r9
    1f78:	00 40 01 10 	mull	r8,r16
    1f7c:	20 70 03 e2 	movepc	rret,8
    1f80:	14 30 f8 24 	br	10 <compare>,#al
    1f84:	00 10 00 41 	add	r2,1
    1f88:	0d 40 4d 04 	wl16	r8,0x264
    1f8c:	0d 60 01 03 	wh16	r8,0x3
    1f90:	10 40 01 08 	ld32	r8,r8
    1f94:	0d 42 6e 00 	wl16	r16,0x1360
    1f98:	0d 60 02 03 	wh16	r16,0x3
    1f9c:	10 40 02 10 	ld32	r16,r16
    1fa0:	0d 44 89 3c 	wl16	r9,0x245c
    1fa4:	0d 60 01 23 	wh16	r9,0x3
    1fa8:	10 40 01 29 	ld32	r9,r9
    1fac:	00 40 01 10 	mull	r8,r16
    1fb0:	20 70 03 e2 	movepc	rret,8
    1fb4:	14 30 f8 17 	br	10 <compare>,#al
    1fb8:	00 10 00 41 	add	r2,1
    1fbc:	0d 40 4d 08 	wl16	r8,0x268
    1fc0:	0d 60 01 03 	wh16	r8,0x3
    1fc4:	10 40 01 08 	ld32	r8,r8
    1fc8:	0d 42 6e 04 	wl16	r16,0x1364
    1fcc:	0d 60 02 03 	wh16	r16,0x3
    1fd0:	10 40 02 10 	ld32	r16,r16
    1fd4:	0d 44 8d 20 	wl16	r9,0x2460
    1fd8:	0d 60 01 23 	wh16	r9,0x3
    1fdc:	10 40 01 29 	ld32	r9,r9
    1fe0:	00 40 01 10 	mull	r8,r16
    1fe4:	20 70 03 e2 	movepc	rret,8
    1fe8:	14 30 f8 0a 	br	10 <compare>,#al
    1fec:	00 10 00 41 	add	r2,1
    1ff0:	0d 40 4d 0c 	wl16	r8,0x26c
    1ff4:	0d 60 01 03 	wh16	r8,0x3
    1ff8:	10 40 01 08 	ld32	r8,r8
    1ffc:	0d 42 6e 08 	wl16	r16,0x1368
    2000:	0d 60 02 03 	wh16	r16,0x3
    2004:	10 40 02 10 	ld32	r16,r16
    2008:	0d 44 8d 24 	wl16	r9,0x2464
    200c:	0d 60 01 23 	wh16	r9,0x3
    2010:	10 40 01 29 	ld32	r9,r9
    2014:	00 40 01 10 	mull	r8,r16
    2018:	20 70 03 e2 	movepc	rret,8
    201c:	14 30 f7 fd 	br	10 <compare>,#al
    2020:	00 10 00 41 	add	r2,1
    2024:	0d 40 4d 10 	wl16	r8,0x270
    2028:	0d 60 01 03 	wh16	r8,0x3
    202c:	10 40 01 08 	ld32	r8,r8
    2030:	0d 42 6e 0c 	wl16	r16,0x136c
    2034:	0d 60 02 03 	wh16	r16,0x3
    2038:	10 40 02 10 	ld32	r16,r16
    203c:	0d 44 8d 28 	wl16	r9,0x2468
    2040:	0d 60 01 23 	wh16	r9,0x3
    2044:	10 40 01 29 	ld32	r9,r9
    2048:	00 40 01 10 	mull	r8,r16
    204c:	20 70 03 e2 	movepc	rret,8
    2050:	14 30 f7 f0 	br	10 <compare>,#al
    2054:	00 10 00 41 	add	r2,1
    2058:	0d 40 4d 14 	wl16	r8,0x274
    205c:	0d 60 01 03 	wh16	r8,0x3
    2060:	10 40 01 08 	ld32	r8,r8
    2064:	0d 42 6e 10 	wl16	r16,0x1370
    2068:	0d 60 02 03 	wh16	r16,0x3
    206c:	10 40 02 10 	ld32	r16,r16
    2070:	0d 44 8d 2c 	wl16	r9,0x246c
    2074:	0d 60 01 23 	wh16	r9,0x3
    2078:	10 40 01 29 	ld32	r9,r9
    207c:	00 40 01 10 	mull	r8,r16
    2080:	20 70 03 e2 	movepc	rret,8
    2084:	14 30 f7 e3 	br	10 <compare>,#al
    2088:	00 10 00 41 	add	r2,1
    208c:	0d 40 4d 18 	wl16	r8,0x278
    2090:	0d 60 01 03 	wh16	r8,0x3
    2094:	10 40 01 08 	ld32	r8,r8
    2098:	0d 42 6e 14 	wl16	r16,0x1374
    209c:	0d 60 02 03 	wh16	r16,0x3
    20a0:	10 40 02 10 	ld32	r16,r16
    20a4:	0d 44 8d 30 	wl16	r9,0x2470
    20a8:	0d 60 01 23 	wh16	r9,0x3
    20ac:	10 40 01 29 	ld32	r9,r9
    20b0:	00 40 01 10 	mull	r8,r16
    20b4:	20 70 03 e2 	movepc	rret,8
    20b8:	14 30 f7 d6 	br	10 <compare>,#al
    20bc:	00 10 00 41 	add	r2,1
    20c0:	0d 40 4d 1c 	wl16	r8,0x27c
    20c4:	0d 60 01 03 	wh16	r8,0x3
    20c8:	10 40 01 08 	ld32	r8,r8
    20cc:	0d 42 6e 18 	wl16	r16,0x1378
    20d0:	0d 60 02 03 	wh16	r16,0x3
    20d4:	10 40 02 10 	ld32	r16,r16
    20d8:	0d 44 8d 34 	wl16	r9,0x2474
    20dc:	0d 60 01 23 	wh16	r9,0x3
    20e0:	10 40 01 29 	ld32	r9,r9
    20e4:	00 40 01 10 	mull	r8,r16
    20e8:	20 70 03 e2 	movepc	rret,8
    20ec:	14 30 f7 c9 	br	10 <compare>,#al
    20f0:	00 10 00 41 	add	r2,1
    20f4:	0d 40 51 00 	wl16	r8,0x280
    20f8:	0d 60 01 03 	wh16	r8,0x3
    20fc:	10 40 01 08 	ld32	r8,r8
    2100:	0d 42 6e 1c 	wl16	r16,0x137c
    2104:	0d 60 02 03 	wh16	r16,0x3
    2108:	10 40 02 10 	ld32	r16,r16
    210c:	0d 44 8d 38 	wl16	r9,0x2478
    2110:	0d 60 01 23 	wh16	r9,0x3
    2114:	10 40 01 29 	ld32	r9,r9
    2118:	00 40 01 10 	mull	r8,r16
    211c:	20 70 03 e2 	movepc	rret,8
    2120:	14 30 f7 bc 	br	10 <compare>,#al
    2124:	00 10 00 41 	add	r2,1
    2128:	0d 40 51 04 	wl16	r8,0x284
    212c:	0d 60 01 03 	wh16	r8,0x3
    2130:	10 40 01 08 	ld32	r8,r8
    2134:	0d 42 72 00 	wl16	r16,0x1380
    2138:	0d 60 02 03 	wh16	r16,0x3
    213c:	10 40 02 10 	ld32	r16,r16
    2140:	0d 44 8d 3c 	wl16	r9,0x247c
    2144:	0d 60 01 23 	wh16	r9,0x3
    2148:	10 40 01 29 	ld32	r9,r9
    214c:	00 40 01 10 	mull	r8,r16
    2150:	20 70 03 e2 	movepc	rret,8
    2154:	14 30 f7 af 	br	10 <compare>,#al
    2158:	00 10 00 41 	add	r2,1
    215c:	0d 40 51 08 	wl16	r8,0x288
    2160:	0d 60 01 03 	wh16	r8,0x3
    2164:	10 40 01 08 	ld32	r8,r8
    2168:	0d 42 72 04 	wl16	r16,0x1384
    216c:	0d 60 02 03 	wh16	r16,0x3
    2170:	10 40 02 10 	ld32	r16,r16
    2174:	0d 44 91 20 	wl16	r9,0x2480
    2178:	0d 60 01 23 	wh16	r9,0x3
    217c:	10 40 01 29 	ld32	r9,r9
    2180:	00 40 01 10 	mull	r8,r16
    2184:	20 70 03 e2 	movepc	rret,8
    2188:	14 30 f7 a2 	br	10 <compare>,#al
    218c:	00 10 00 41 	add	r2,1
    2190:	0d 40 51 0c 	wl16	r8,0x28c
    2194:	0d 60 01 03 	wh16	r8,0x3
    2198:	10 40 01 08 	ld32	r8,r8
    219c:	0d 42 72 08 	wl16	r16,0x1388
    21a0:	0d 60 02 03 	wh16	r16,0x3
    21a4:	10 40 02 10 	ld32	r16,r16
    21a8:	0d 44 91 24 	wl16	r9,0x2484
    21ac:	0d 60 01 23 	wh16	r9,0x3
    21b0:	10 40 01 29 	ld32	r9,r9
    21b4:	00 40 01 10 	mull	r8,r16
    21b8:	20 70 03 e2 	movepc	rret,8
    21bc:	14 30 f7 95 	br	10 <compare>,#al
    21c0:	00 10 00 41 	add	r2,1
    21c4:	0d 40 51 10 	wl16	r8,0x290
    21c8:	0d 60 01 03 	wh16	r8,0x3
    21cc:	10 40 01 08 	ld32	r8,r8
    21d0:	0d 42 72 0c 	wl16	r16,0x138c
    21d4:	0d 60 02 03 	wh16	r16,0x3
    21d8:	10 40 02 10 	ld32	r16,r16
    21dc:	0d 44 91 28 	wl16	r9,0x2488
    21e0:	0d 60 01 23 	wh16	r9,0x3
    21e4:	10 40 01 29 	ld32	r9,r9
    21e8:	00 40 01 10 	mull	r8,r16
    21ec:	20 70 03 e2 	movepc	rret,8
    21f0:	14 30 f7 88 	br	10 <compare>,#al
    21f4:	00 10 00 41 	add	r2,1
    21f8:	0d 40 51 14 	wl16	r8,0x294
    21fc:	0d 60 01 03 	wh16	r8,0x3
    2200:	10 40 01 08 	ld32	r8,r8
    2204:	0d 42 72 10 	wl16	r16,0x1390
    2208:	0d 60 02 03 	wh16	r16,0x3
    220c:	10 40 02 10 	ld32	r16,r16
    2210:	0d 44 91 2c 	wl16	r9,0x248c
    2214:	0d 60 01 23 	wh16	r9,0x3
    2218:	10 40 01 29 	ld32	r9,r9
    221c:	00 40 01 10 	mull	r8,r16
    2220:	20 70 03 e2 	movepc	rret,8
    2224:	14 30 f7 7b 	br	10 <compare>,#al
    2228:	00 10 00 41 	add	r2,1
    222c:	0d 40 51 18 	wl16	r8,0x298
    2230:	0d 60 01 03 	wh16	r8,0x3
    2234:	10 40 01 08 	ld32	r8,r8
    2238:	0d 42 72 14 	wl16	r16,0x1394
    223c:	0d 60 02 03 	wh16	r16,0x3
    2240:	10 40 02 10 	ld32	r16,r16
    2244:	0d 44 91 30 	wl16	r9,0x2490
    2248:	0d 60 01 23 	wh16	r9,0x3
    224c:	10 40 01 29 	ld32	r9,r9
    2250:	00 40 01 10 	mull	r8,r16
    2254:	20 70 03 e2 	movepc	rret,8
    2258:	14 30 f7 6e 	br	10 <compare>,#al
    225c:	00 10 00 41 	add	r2,1
    2260:	0d 40 51 1c 	wl16	r8,0x29c
    2264:	0d 60 01 03 	wh16	r8,0x3
    2268:	10 40 01 08 	ld32	r8,r8
    226c:	0d 42 72 18 	wl16	r16,0x1398
    2270:	0d 60 02 03 	wh16	r16,0x3
    2274:	10 40 02 10 	ld32	r16,r16
    2278:	0d 44 91 34 	wl16	r9,0x2494
    227c:	0d 60 01 23 	wh16	r9,0x3
    2280:	10 40 01 29 	ld32	r9,r9
    2284:	00 40 01 10 	mull	r8,r16
    2288:	20 70 03 e2 	movepc	rret,8
    228c:	14 30 f7 61 	br	10 <compare>,#al
    2290:	00 10 00 41 	add	r2,1
    2294:	0d 40 55 00 	wl16	r8,0x2a0
    2298:	0d 60 01 03 	wh16	r8,0x3
    229c:	10 40 01 08 	ld32	r8,r8
    22a0:	0d 42 72 1c 	wl16	r16,0x139c
    22a4:	0d 60 02 03 	wh16	r16,0x3
    22a8:	10 40 02 10 	ld32	r16,r16
    22ac:	0d 44 91 38 	wl16	r9,0x2498
    22b0:	0d 60 01 23 	wh16	r9,0x3
    22b4:	10 40 01 29 	ld32	r9,r9
    22b8:	00 40 01 10 	mull	r8,r16
    22bc:	20 70 03 e2 	movepc	rret,8
    22c0:	14 30 f7 54 	br	10 <compare>,#al
    22c4:	00 10 00 41 	add	r2,1
    22c8:	0d 40 55 04 	wl16	r8,0x2a4
    22cc:	0d 60 01 03 	wh16	r8,0x3
    22d0:	10 40 01 08 	ld32	r8,r8
    22d4:	0d 42 76 00 	wl16	r16,0x13a0
    22d8:	0d 60 02 03 	wh16	r16,0x3
    22dc:	10 40 02 10 	ld32	r16,r16
    22e0:	0d 44 91 3c 	wl16	r9,0x249c
    22e4:	0d 60 01 23 	wh16	r9,0x3
    22e8:	10 40 01 29 	ld32	r9,r9
    22ec:	00 40 01 10 	mull	r8,r16
    22f0:	20 70 03 e2 	movepc	rret,8
    22f4:	14 30 f7 47 	br	10 <compare>,#al
    22f8:	00 10 00 41 	add	r2,1
    22fc:	0d 40 55 08 	wl16	r8,0x2a8
    2300:	0d 60 01 03 	wh16	r8,0x3
    2304:	10 40 01 08 	ld32	r8,r8
    2308:	0d 42 76 04 	wl16	r16,0x13a4
    230c:	0d 60 02 03 	wh16	r16,0x3
    2310:	10 40 02 10 	ld32	r16,r16
    2314:	0d 44 95 20 	wl16	r9,0x24a0
    2318:	0d 60 01 23 	wh16	r9,0x3
    231c:	10 40 01 29 	ld32	r9,r9
    2320:	00 40 01 10 	mull	r8,r16
    2324:	20 70 03 e2 	movepc	rret,8
    2328:	14 30 f7 3a 	br	10 <compare>,#al
    232c:	00 10 00 41 	add	r2,1
    2330:	0d 40 55 0c 	wl16	r8,0x2ac
    2334:	0d 60 01 03 	wh16	r8,0x3
    2338:	10 40 01 08 	ld32	r8,r8
    233c:	0d 42 76 08 	wl16	r16,0x13a8
    2340:	0d 60 02 03 	wh16	r16,0x3
    2344:	10 40 02 10 	ld32	r16,r16
    2348:	0d 44 95 24 	wl16	r9,0x24a4
    234c:	0d 60 01 23 	wh16	r9,0x3
    2350:	10 40 01 29 	ld32	r9,r9
    2354:	00 40 01 10 	mull	r8,r16
    2358:	20 70 03 e2 	movepc	rret,8
    235c:	14 30 f7 2d 	br	10 <compare>,#al
    2360:	00 10 00 41 	add	r2,1
    2364:	0d 40 55 10 	wl16	r8,0x2b0
    2368:	0d 60 01 03 	wh16	r8,0x3
    236c:	10 40 01 08 	ld32	r8,r8
    2370:	0d 42 76 0c 	wl16	r16,0x13ac
    2374:	0d 60 02 03 	wh16	r16,0x3
    2378:	10 40 02 10 	ld32	r16,r16
    237c:	0d 44 95 28 	wl16	r9,0x24a8
    2380:	0d 60 01 23 	wh16	r9,0x3
    2384:	10 40 01 29 	ld32	r9,r9
    2388:	00 40 01 10 	mull	r8,r16
    238c:	20 70 03 e2 	movepc	rret,8
    2390:	14 30 f7 20 	br	10 <compare>,#al
    2394:	00 10 00 41 	add	r2,1
    2398:	0d 40 55 14 	wl16	r8,0x2b4
    239c:	0d 60 01 03 	wh16	r8,0x3
    23a0:	10 40 01 08 	ld32	r8,r8
    23a4:	0d 42 76 10 	wl16	r16,0x13b0
    23a8:	0d 60 02 03 	wh16	r16,0x3
    23ac:	10 40 02 10 	ld32	r16,r16
    23b0:	0d 44 95 2c 	wl16	r9,0x24ac
    23b4:	0d 60 01 23 	wh16	r9,0x3
    23b8:	10 40 01 29 	ld32	r9,r9
    23bc:	00 40 01 10 	mull	r8,r16
    23c0:	20 70 03 e2 	movepc	rret,8
    23c4:	14 30 f7 13 	br	10 <compare>,#al
    23c8:	00 10 00 41 	add	r2,1
    23cc:	0d 40 55 18 	wl16	r8,0x2b8
    23d0:	0d 60 01 03 	wh16	r8,0x3
    23d4:	10 40 01 08 	ld32	r8,r8
    23d8:	0d 42 76 14 	wl16	r16,0x13b4
    23dc:	0d 60 02 03 	wh16	r16,0x3
    23e0:	10 40 02 10 	ld32	r16,r16
    23e4:	0d 44 95 30 	wl16	r9,0x24b0
    23e8:	0d 60 01 23 	wh16	r9,0x3
    23ec:	10 40 01 29 	ld32	r9,r9
    23f0:	00 40 01 10 	mull	r8,r16
    23f4:	20 70 03 e2 	movepc	rret,8
    23f8:	14 30 f7 06 	br	10 <compare>,#al
    23fc:	00 10 00 41 	add	r2,1
    2400:	0d 40 55 1c 	wl16	r8,0x2bc
    2404:	0d 60 01 03 	wh16	r8,0x3
    2408:	10 40 01 08 	ld32	r8,r8
    240c:	0d 42 76 18 	wl16	r16,0x13b8
    2410:	0d 60 02 03 	wh16	r16,0x3
    2414:	10 40 02 10 	ld32	r16,r16
    2418:	0d 44 95 34 	wl16	r9,0x24b4
    241c:	0d 60 01 23 	wh16	r9,0x3
    2420:	10 40 01 29 	ld32	r9,r9
    2424:	00 40 01 10 	mull	r8,r16
    2428:	20 70 03 e2 	movepc	rret,8
    242c:	14 30 f6 f9 	br	10 <compare>,#al
    2430:	00 10 00 41 	add	r2,1
    2434:	0d 40 59 00 	wl16	r8,0x2c0
    2438:	0d 60 01 03 	wh16	r8,0x3
    243c:	10 40 01 08 	ld32	r8,r8
    2440:	0d 42 76 1c 	wl16	r16,0x13bc
    2444:	0d 60 02 03 	wh16	r16,0x3
    2448:	10 40 02 10 	ld32	r16,r16
    244c:	0d 44 95 38 	wl16	r9,0x24b8
    2450:	0d 60 01 23 	wh16	r9,0x3
    2454:	10 40 01 29 	ld32	r9,r9
    2458:	00 40 01 10 	mull	r8,r16
    245c:	20 70 03 e2 	movepc	rret,8
    2460:	14 30 f6 ec 	br	10 <compare>,#al
    2464:	00 10 00 41 	add	r2,1
    2468:	0d 40 59 04 	wl16	r8,0x2c4
    246c:	0d 60 01 03 	wh16	r8,0x3
    2470:	10 40 01 08 	ld32	r8,r8
    2474:	0d 42 7a 00 	wl16	r16,0x13c0
    2478:	0d 60 02 03 	wh16	r16,0x3
    247c:	10 40 02 10 	ld32	r16,r16
    2480:	0d 44 95 3c 	wl16	r9,0x24bc
    2484:	0d 60 01 23 	wh16	r9,0x3
    2488:	10 40 01 29 	ld32	r9,r9
    248c:	00 40 01 10 	mull	r8,r16
    2490:	20 70 03 e2 	movepc	rret,8
    2494:	14 30 f6 df 	br	10 <compare>,#al
    2498:	00 10 00 41 	add	r2,1
    249c:	0d 40 59 08 	wl16	r8,0x2c8
    24a0:	0d 60 01 03 	wh16	r8,0x3
    24a4:	10 40 01 08 	ld32	r8,r8
    24a8:	0d 42 7a 04 	wl16	r16,0x13c4
    24ac:	0d 60 02 03 	wh16	r16,0x3
    24b0:	10 40 02 10 	ld32	r16,r16
    24b4:	0d 44 99 20 	wl16	r9,0x24c0
    24b8:	0d 60 01 23 	wh16	r9,0x3
    24bc:	10 40 01 29 	ld32	r9,r9
    24c0:	00 40 01 10 	mull	r8,r16
    24c4:	20 70 03 e2 	movepc	rret,8
    24c8:	14 30 f6 d2 	br	10 <compare>,#al
    24cc:	00 10 00 41 	add	r2,1
    24d0:	0d 40 59 0c 	wl16	r8,0x2cc
    24d4:	0d 60 01 03 	wh16	r8,0x3
    24d8:	10 40 01 08 	ld32	r8,r8
    24dc:	0d 42 7a 08 	wl16	r16,0x13c8
    24e0:	0d 60 02 03 	wh16	r16,0x3
    24e4:	10 40 02 10 	ld32	r16,r16
    24e8:	0d 44 99 24 	wl16	r9,0x24c4
    24ec:	0d 60 01 23 	wh16	r9,0x3
    24f0:	10 40 01 29 	ld32	r9,r9
    24f4:	00 40 01 10 	mull	r8,r16
    24f8:	20 70 03 e2 	movepc	rret,8
    24fc:	14 30 f6 c5 	br	10 <compare>,#al
    2500:	00 10 00 41 	add	r2,1
    2504:	0d 40 59 10 	wl16	r8,0x2d0
    2508:	0d 60 01 03 	wh16	r8,0x3
    250c:	10 40 01 08 	ld32	r8,r8
    2510:	0d 42 7a 0c 	wl16	r16,0x13cc
    2514:	0d 60 02 03 	wh16	r16,0x3
    2518:	10 40 02 10 	ld32	r16,r16
    251c:	0d 44 99 28 	wl16	r9,0x24c8
    2520:	0d 60 01 23 	wh16	r9,0x3
    2524:	10 40 01 29 	ld32	r9,r9
    2528:	00 40 01 10 	mull	r8,r16
    252c:	20 70 03 e2 	movepc	rret,8
    2530:	14 30 f6 b8 	br	10 <compare>,#al
    2534:	00 10 00 41 	add	r2,1
    2538:	0d 40 59 14 	wl16	r8,0x2d4
    253c:	0d 60 01 03 	wh16	r8,0x3
    2540:	10 40 01 08 	ld32	r8,r8
    2544:	0d 42 7a 10 	wl16	r16,0x13d0
    2548:	0d 60 02 03 	wh16	r16,0x3
    254c:	10 40 02 10 	ld32	r16,r16
    2550:	0d 44 99 2c 	wl16	r9,0x24cc
    2554:	0d 60 01 23 	wh16	r9,0x3
    2558:	10 40 01 29 	ld32	r9,r9
    255c:	00 40 01 10 	mull	r8,r16
    2560:	20 70 03 e2 	movepc	rret,8
    2564:	14 30 f6 ab 	br	10 <compare>,#al
    2568:	00 10 00 41 	add	r2,1
    256c:	0d 40 59 18 	wl16	r8,0x2d8
    2570:	0d 60 01 03 	wh16	r8,0x3
    2574:	10 40 01 08 	ld32	r8,r8
    2578:	0d 42 7a 14 	wl16	r16,0x13d4
    257c:	0d 60 02 03 	wh16	r16,0x3
    2580:	10 40 02 10 	ld32	r16,r16
    2584:	0d 44 99 30 	wl16	r9,0x24d0
    2588:	0d 60 01 23 	wh16	r9,0x3
    258c:	10 40 01 29 	ld32	r9,r9
    2590:	00 40 01 10 	mull	r8,r16
    2594:	20 70 03 e2 	movepc	rret,8
    2598:	14 30 f6 9e 	br	10 <compare>,#al
    259c:	00 10 00 41 	add	r2,1
    25a0:	0d 40 59 1c 	wl16	r8,0x2dc
    25a4:	0d 60 01 03 	wh16	r8,0x3
    25a8:	10 40 01 08 	ld32	r8,r8
    25ac:	0d 42 7a 18 	wl16	r16,0x13d8
    25b0:	0d 60 02 03 	wh16	r16,0x3
    25b4:	10 40 02 10 	ld32	r16,r16
    25b8:	0d 44 99 34 	wl16	r9,0x24d4
    25bc:	0d 60 01 23 	wh16	r9,0x3
    25c0:	10 40 01 29 	ld32	r9,r9
    25c4:	00 40 01 10 	mull	r8,r16
    25c8:	20 70 03 e2 	movepc	rret,8
    25cc:	14 30 f6 91 	br	10 <compare>,#al
    25d0:	00 10 00 41 	add	r2,1
    25d4:	0d 40 5d 00 	wl16	r8,0x2e0
    25d8:	0d 60 01 03 	wh16	r8,0x3
    25dc:	10 40 01 08 	ld32	r8,r8
    25e0:	0d 42 7a 1c 	wl16	r16,0x13dc
    25e4:	0d 60 02 03 	wh16	r16,0x3
    25e8:	10 40 02 10 	ld32	r16,r16
    25ec:	0d 44 99 38 	wl16	r9,0x24d8
    25f0:	0d 60 01 23 	wh16	r9,0x3
    25f4:	10 40 01 29 	ld32	r9,r9
    25f8:	00 40 01 10 	mull	r8,r16
    25fc:	20 70 03 e2 	movepc	rret,8
    2600:	14 30 f6 84 	br	10 <compare>,#al
    2604:	00 10 00 41 	add	r2,1
    2608:	0d 40 5d 04 	wl16	r8,0x2e4
    260c:	0d 60 01 03 	wh16	r8,0x3
    2610:	10 40 01 08 	ld32	r8,r8
    2614:	0d 42 7e 00 	wl16	r16,0x13e0
    2618:	0d 60 02 03 	wh16	r16,0x3
    261c:	10 40 02 10 	ld32	r16,r16
    2620:	0d 44 99 3c 	wl16	r9,0x24dc
    2624:	0d 60 01 23 	wh16	r9,0x3
    2628:	10 40 01 29 	ld32	r9,r9
    262c:	00 40 01 10 	mull	r8,r16
    2630:	20 70 03 e2 	movepc	rret,8
    2634:	14 30 f6 77 	br	10 <compare>,#al
    2638:	00 10 00 41 	add	r2,1
    263c:	0d 40 5d 08 	wl16	r8,0x2e8
    2640:	0d 60 01 03 	wh16	r8,0x3
    2644:	10 40 01 08 	ld32	r8,r8
    2648:	0d 42 7e 04 	wl16	r16,0x13e4
    264c:	0d 60 02 03 	wh16	r16,0x3
    2650:	10 40 02 10 	ld32	r16,r16
    2654:	0d 44 9d 20 	wl16	r9,0x24e0
    2658:	0d 60 01 23 	wh16	r9,0x3
    265c:	10 40 01 29 	ld32	r9,r9
    2660:	00 40 01 10 	mull	r8,r16
    2664:	20 70 03 e2 	movepc	rret,8
    2668:	14 30 f6 6a 	br	10 <compare>,#al
    266c:	00 10 00 41 	add	r2,1
    2670:	0d 40 5d 0c 	wl16	r8,0x2ec
    2674:	0d 60 01 03 	wh16	r8,0x3
    2678:	10 40 01 08 	ld32	r8,r8
    267c:	0d 42 7e 08 	wl16	r16,0x13e8
    2680:	0d 60 02 03 	wh16	r16,0x3
    2684:	10 40 02 10 	ld32	r16,r16
    2688:	0d 44 9d 24 	wl16	r9,0x24e4
    268c:	0d 60 01 23 	wh16	r9,0x3
    2690:	10 40 01 29 	ld32	r9,r9
    2694:	00 40 01 10 	mull	r8,r16
    2698:	20 70 03 e2 	movepc	rret,8
    269c:	14 30 f6 5d 	br	10 <compare>,#al
    26a0:	00 10 00 41 	add	r2,1
    26a4:	0d 40 5d 10 	wl16	r8,0x2f0
    26a8:	0d 60 01 03 	wh16	r8,0x3
    26ac:	10 40 01 08 	ld32	r8,r8
    26b0:	0d 42 7e 0c 	wl16	r16,0x13ec
    26b4:	0d 60 02 03 	wh16	r16,0x3
    26b8:	10 40 02 10 	ld32	r16,r16
    26bc:	0d 44 9d 28 	wl16	r9,0x24e8
    26c0:	0d 60 01 23 	wh16	r9,0x3
    26c4:	10 40 01 29 	ld32	r9,r9
    26c8:	00 40 01 10 	mull	r8,r16
    26cc:	20 70 03 e2 	movepc	rret,8
    26d0:	14 30 f6 50 	br	10 <compare>,#al
    26d4:	00 10 00 41 	add	r2,1
    26d8:	0d 40 5d 14 	wl16	r8,0x2f4
    26dc:	0d 60 01 03 	wh16	r8,0x3
    26e0:	10 40 01 08 	ld32	r8,r8
    26e4:	0d 42 7e 10 	wl16	r16,0x13f0
    26e8:	0d 60 02 03 	wh16	r16,0x3
    26ec:	10 40 02 10 	ld32	r16,r16
    26f0:	0d 44 9d 2c 	wl16	r9,0x24ec
    26f4:	0d 60 01 23 	wh16	r9,0x3
    26f8:	10 40 01 29 	ld32	r9,r9
    26fc:	00 40 01 10 	mull	r8,r16
    2700:	20 70 03 e2 	movepc	rret,8
    2704:	14 30 f6 43 	br	10 <compare>,#al
    2708:	00 10 00 41 	add	r2,1
    270c:	0d 40 5d 18 	wl16	r8,0x2f8
    2710:	0d 60 01 03 	wh16	r8,0x3
    2714:	10 40 01 08 	ld32	r8,r8
    2718:	0d 42 7e 14 	wl16	r16,0x13f4
    271c:	0d 60 02 03 	wh16	r16,0x3
    2720:	10 40 02 10 	ld32	r16,r16
    2724:	0d 44 9d 30 	wl16	r9,0x24f0
    2728:	0d 60 01 23 	wh16	r9,0x3
    272c:	10 40 01 29 	ld32	r9,r9
    2730:	00 40 01 10 	mull	r8,r16
    2734:	20 70 03 e2 	movepc	rret,8
    2738:	14 30 f6 36 	br	10 <compare>,#al
    273c:	00 10 00 41 	add	r2,1
    2740:	0d 40 5d 1c 	wl16	r8,0x2fc
    2744:	0d 60 01 03 	wh16	r8,0x3
    2748:	10 40 01 08 	ld32	r8,r8
    274c:	0d 42 7e 18 	wl16	r16,0x13f8
    2750:	0d 60 02 03 	wh16	r16,0x3
    2754:	10 40 02 10 	ld32	r16,r16
    2758:	0d 44 9d 34 	wl16	r9,0x24f4
    275c:	0d 60 01 23 	wh16	r9,0x3
    2760:	10 40 01 29 	ld32	r9,r9
    2764:	00 40 01 10 	mull	r8,r16
    2768:	20 70 03 e2 	movepc	rret,8
    276c:	14 30 f6 29 	br	10 <compare>,#al
    2770:	00 10 00 41 	add	r2,1
    2774:	0d 40 61 00 	wl16	r8,0x300
    2778:	0d 60 01 03 	wh16	r8,0x3
    277c:	10 40 01 08 	ld32	r8,r8
    2780:	0d 42 7e 1c 	wl16	r16,0x13fc
    2784:	0d 60 02 03 	wh16	r16,0x3
    2788:	10 40 02 10 	ld32	r16,r16
    278c:	0d 44 9d 38 	wl16	r9,0x24f8
    2790:	0d 60 01 23 	wh16	r9,0x3
    2794:	10 40 01 29 	ld32	r9,r9
    2798:	00 40 01 10 	mull	r8,r16
    279c:	20 70 03 e2 	movepc	rret,8
    27a0:	14 30 f6 1c 	br	10 <compare>,#al
    27a4:	00 10 00 41 	add	r2,1
    27a8:	0d 40 61 04 	wl16	r8,0x304
    27ac:	0d 60 01 03 	wh16	r8,0x3
    27b0:	10 40 01 08 	ld32	r8,r8
    27b4:	0d 42 82 00 	wl16	r16,0x1400
    27b8:	0d 60 02 03 	wh16	r16,0x3
    27bc:	10 40 02 10 	ld32	r16,r16
    27c0:	0d 44 9d 3c 	wl16	r9,0x24fc
    27c4:	0d 60 01 23 	wh16	r9,0x3
    27c8:	10 40 01 29 	ld32	r9,r9
    27cc:	00 40 01 10 	mull	r8,r16
    27d0:	20 70 03 e2 	movepc	rret,8
    27d4:	14 30 f6 0f 	br	10 <compare>,#al
    27d8:	00 10 00 41 	add	r2,1
    27dc:	0d 40 61 08 	wl16	r8,0x308
    27e0:	0d 60 01 03 	wh16	r8,0x3
    27e4:	10 40 01 08 	ld32	r8,r8
    27e8:	0d 42 82 04 	wl16	r16,0x1404
    27ec:	0d 60 02 03 	wh16	r16,0x3
    27f0:	10 40 02 10 	ld32	r16,r16
    27f4:	0d 44 a1 20 	wl16	r9,0x2500
    27f8:	0d 60 01 23 	wh16	r9,0x3
    27fc:	10 40 01 29 	ld32	r9,r9
    2800:	00 40 01 10 	mull	r8,r16
    2804:	20 70 03 e2 	movepc	rret,8
    2808:	14 30 f6 02 	br	10 <compare>,#al
    280c:	00 10 00 41 	add	r2,1
    2810:	0d 40 61 0c 	wl16	r8,0x30c
    2814:	0d 60 01 03 	wh16	r8,0x3
    2818:	10 40 01 08 	ld32	r8,r8
    281c:	0d 42 82 08 	wl16	r16,0x1408
    2820:	0d 60 02 03 	wh16	r16,0x3
    2824:	10 40 02 10 	ld32	r16,r16
    2828:	0d 44 a1 24 	wl16	r9,0x2504
    282c:	0d 60 01 23 	wh16	r9,0x3
    2830:	10 40 01 29 	ld32	r9,r9
    2834:	00 40 01 10 	mull	r8,r16
    2838:	20 70 03 e2 	movepc	rret,8
    283c:	14 30 f5 f5 	br	10 <compare>,#al
    2840:	00 10 00 41 	add	r2,1
    2844:	0d 40 61 10 	wl16	r8,0x310
    2848:	0d 60 01 03 	wh16	r8,0x3
    284c:	10 40 01 08 	ld32	r8,r8
    2850:	0d 42 82 0c 	wl16	r16,0x140c
    2854:	0d 60 02 03 	wh16	r16,0x3
    2858:	10 40 02 10 	ld32	r16,r16
    285c:	0d 44 a1 28 	wl16	r9,0x2508
    2860:	0d 60 01 23 	wh16	r9,0x3
    2864:	10 40 01 29 	ld32	r9,r9
    2868:	00 40 01 10 	mull	r8,r16
    286c:	20 70 03 e2 	movepc	rret,8
    2870:	14 30 f5 e8 	br	10 <compare>,#al
    2874:	00 10 00 41 	add	r2,1
    2878:	0d 40 61 14 	wl16	r8,0x314
    287c:	0d 60 01 03 	wh16	r8,0x3
    2880:	10 40 01 08 	ld32	r8,r8
    2884:	0d 42 82 10 	wl16	r16,0x1410
    2888:	0d 60 02 03 	wh16	r16,0x3
    288c:	10 40 02 10 	ld32	r16,r16
    2890:	0d 44 a1 2c 	wl16	r9,0x250c
    2894:	0d 60 01 23 	wh16	r9,0x3
    2898:	10 40 01 29 	ld32	r9,r9
    289c:	00 40 01 10 	mull	r8,r16
    28a0:	20 70 03 e2 	movepc	rret,8
    28a4:	14 30 f5 db 	br	10 <compare>,#al
    28a8:	00 10 00 41 	add	r2,1
    28ac:	0d 40 61 18 	wl16	r8,0x318
    28b0:	0d 60 01 03 	wh16	r8,0x3
    28b4:	10 40 01 08 	ld32	r8,r8
    28b8:	0d 42 82 14 	wl16	r16,0x1414
    28bc:	0d 60 02 03 	wh16	r16,0x3
    28c0:	10 40 02 10 	ld32	r16,r16
    28c4:	0d 44 a1 30 	wl16	r9,0x2510
    28c8:	0d 60 01 23 	wh16	r9,0x3
    28cc:	10 40 01 29 	ld32	r9,r9
    28d0:	00 40 01 10 	mull	r8,r16
    28d4:	20 70 03 e2 	movepc	rret,8
    28d8:	14 30 f5 ce 	br	10 <compare>,#al
    28dc:	00 10 00 41 	add	r2,1
    28e0:	0d 40 61 1c 	wl16	r8,0x31c
    28e4:	0d 60 01 03 	wh16	r8,0x3
    28e8:	10 40 01 08 	ld32	r8,r8
    28ec:	0d 42 82 18 	wl16	r16,0x1418
    28f0:	0d 60 02 03 	wh16	r16,0x3
    28f4:	10 40 02 10 	ld32	r16,r16
    28f8:	0d 44 a1 34 	wl16	r9,0x2514
    28fc:	0d 60 01 23 	wh16	r9,0x3
    2900:	10 40 01 29 	ld32	r9,r9
    2904:	00 40 01 10 	mull	r8,r16
    2908:	20 70 03 e2 	movepc	rret,8
    290c:	14 30 f5 c1 	br	10 <compare>,#al
    2910:	00 10 00 41 	add	r2,1
    2914:	0d 40 65 00 	wl16	r8,0x320
    2918:	0d 60 01 03 	wh16	r8,0x3
    291c:	10 40 01 08 	ld32	r8,r8
    2920:	0d 42 82 1c 	wl16	r16,0x141c
    2924:	0d 60 02 03 	wh16	r16,0x3
    2928:	10 40 02 10 	ld32	r16,r16
    292c:	0d 44 a1 38 	wl16	r9,0x2518
    2930:	0d 60 01 23 	wh16	r9,0x3
    2934:	10 40 01 29 	ld32	r9,r9
    2938:	00 40 01 10 	mull	r8,r16
    293c:	20 70 03 e2 	movepc	rret,8
    2940:	14 30 f5 b4 	br	10 <compare>,#al
    2944:	00 10 00 41 	add	r2,1
    2948:	0d 40 65 04 	wl16	r8,0x324
    294c:	0d 60 01 03 	wh16	r8,0x3
    2950:	10 40 01 08 	ld32	r8,r8
    2954:	0d 42 86 00 	wl16	r16,0x1420
    2958:	0d 60 02 03 	wh16	r16,0x3
    295c:	10 40 02 10 	ld32	r16,r16
    2960:	0d 44 a1 3c 	wl16	r9,0x251c
    2964:	0d 60 01 23 	wh16	r9,0x3
    2968:	10 40 01 29 	ld32	r9,r9
    296c:	00 40 01 10 	mull	r8,r16
    2970:	20 70 03 e2 	movepc	rret,8
    2974:	14 30 f5 a7 	br	10 <compare>,#al
    2978:	00 10 00 41 	add	r2,1
    297c:	0d 40 65 08 	wl16	r8,0x328
    2980:	0d 60 01 03 	wh16	r8,0x3
    2984:	10 40 01 08 	ld32	r8,r8
    2988:	0d 42 86 04 	wl16	r16,0x1424
    298c:	0d 60 02 03 	wh16	r16,0x3
    2990:	10 40 02 10 	ld32	r16,r16
    2994:	0d 44 a5 20 	wl16	r9,0x2520
    2998:	0d 60 01 23 	wh16	r9,0x3
    299c:	10 40 01 29 	ld32	r9,r9
    29a0:	00 40 01 10 	mull	r8,r16
    29a4:	20 70 03 e2 	movepc	rret,8
    29a8:	14 30 f5 9a 	br	10 <compare>,#al
    29ac:	00 10 00 41 	add	r2,1
    29b0:	0d 40 65 0c 	wl16	r8,0x32c
    29b4:	0d 60 01 03 	wh16	r8,0x3
    29b8:	10 40 01 08 	ld32	r8,r8
    29bc:	0d 42 86 08 	wl16	r16,0x1428
    29c0:	0d 60 02 03 	wh16	r16,0x3
    29c4:	10 40 02 10 	ld32	r16,r16
    29c8:	0d 44 a5 24 	wl16	r9,0x2524
    29cc:	0d 60 01 23 	wh16	r9,0x3
    29d0:	10 40 01 29 	ld32	r9,r9
    29d4:	00 40 01 10 	mull	r8,r16
    29d8:	20 70 03 e2 	movepc	rret,8
    29dc:	14 30 f5 8d 	br	10 <compare>,#al
    29e0:	00 10 00 41 	add	r2,1
    29e4:	0d 40 65 10 	wl16	r8,0x330
    29e8:	0d 60 01 03 	wh16	r8,0x3
    29ec:	10 40 01 08 	ld32	r8,r8
    29f0:	0d 42 86 0c 	wl16	r16,0x142c
    29f4:	0d 60 02 03 	wh16	r16,0x3
    29f8:	10 40 02 10 	ld32	r16,r16
    29fc:	0d 44 a5 28 	wl16	r9,0x2528
    2a00:	0d 60 01 23 	wh16	r9,0x3
    2a04:	10 40 01 29 	ld32	r9,r9
    2a08:	00 40 01 10 	mull	r8,r16
    2a0c:	20 70 03 e2 	movepc	rret,8
    2a10:	14 30 f5 80 	br	10 <compare>,#al
    2a14:	00 10 00 41 	add	r2,1
    2a18:	0d 40 65 14 	wl16	r8,0x334
    2a1c:	0d 60 01 03 	wh16	r8,0x3
    2a20:	10 40 01 08 	ld32	r8,r8
    2a24:	0d 42 86 10 	wl16	r16,0x1430
    2a28:	0d 60 02 03 	wh16	r16,0x3
    2a2c:	10 40 02 10 	ld32	r16,r16
    2a30:	0d 44 a5 2c 	wl16	r9,0x252c
    2a34:	0d 60 01 23 	wh16	r9,0x3
    2a38:	10 40 01 29 	ld32	r9,r9
    2a3c:	00 40 01 10 	mull	r8,r16
    2a40:	20 70 03 e2 	movepc	rret,8
    2a44:	14 30 f5 73 	br	10 <compare>,#al
    2a48:	00 10 00 41 	add	r2,1
    2a4c:	0d 40 65 18 	wl16	r8,0x338
    2a50:	0d 60 01 03 	wh16	r8,0x3
    2a54:	10 40 01 08 	ld32	r8,r8
    2a58:	0d 42 86 14 	wl16	r16,0x1434
    2a5c:	0d 60 02 03 	wh16	r16,0x3
    2a60:	10 40 02 10 	ld32	r16,r16
    2a64:	0d 44 a5 30 	wl16	r9,0x2530
    2a68:	0d 60 01 23 	wh16	r9,0x3
    2a6c:	10 40 01 29 	ld32	r9,r9
    2a70:	00 40 01 10 	mull	r8,r16
    2a74:	20 70 03 e2 	movepc	rret,8
    2a78:	14 30 f5 66 	br	10 <compare>,#al
    2a7c:	00 10 00 41 	add	r2,1
    2a80:	0d 40 65 1c 	wl16	r8,0x33c
    2a84:	0d 60 01 03 	wh16	r8,0x3
    2a88:	10 40 01 08 	ld32	r8,r8
    2a8c:	0d 42 86 18 	wl16	r16,0x1438
    2a90:	0d 60 02 03 	wh16	r16,0x3
    2a94:	10 40 02 10 	ld32	r16,r16
    2a98:	0d 44 a5 34 	wl16	r9,0x2534
    2a9c:	0d 60 01 23 	wh16	r9,0x3
    2aa0:	10 40 01 29 	ld32	r9,r9
    2aa4:	00 40 01 10 	mull	r8,r16
    2aa8:	20 70 03 e2 	movepc	rret,8
    2aac:	14 30 f5 59 	br	10 <compare>,#al
    2ab0:	00 10 00 41 	add	r2,1
    2ab4:	0d 40 69 00 	wl16	r8,0x340
    2ab8:	0d 60 01 03 	wh16	r8,0x3
    2abc:	10 40 01 08 	ld32	r8,r8
    2ac0:	0d 42 86 1c 	wl16	r16,0x143c
    2ac4:	0d 60 02 03 	wh16	r16,0x3
    2ac8:	10 40 02 10 	ld32	r16,r16
    2acc:	0d 44 a5 38 	wl16	r9,0x2538
    2ad0:	0d 60 01 23 	wh16	r9,0x3
    2ad4:	10 40 01 29 	ld32	r9,r9
    2ad8:	00 40 01 10 	mull	r8,r16
    2adc:	20 70 03 e2 	movepc	rret,8
    2ae0:	14 30 f5 4c 	br	10 <compare>,#al
    2ae4:	00 10 00 41 	add	r2,1
    2ae8:	0d 40 69 04 	wl16	r8,0x344
    2aec:	0d 60 01 03 	wh16	r8,0x3
    2af0:	10 40 01 08 	ld32	r8,r8
    2af4:	0d 42 8a 00 	wl16	r16,0x1440
    2af8:	0d 60 02 03 	wh16	r16,0x3
    2afc:	10 40 02 10 	ld32	r16,r16
    2b00:	0d 44 a5 3c 	wl16	r9,0x253c
    2b04:	0d 60 01 23 	wh16	r9,0x3
    2b08:	10 40 01 29 	ld32	r9,r9
    2b0c:	00 40 01 10 	mull	r8,r16
    2b10:	20 70 03 e2 	movepc	rret,8
    2b14:	14 30 f5 3f 	br	10 <compare>,#al
    2b18:	00 10 00 41 	add	r2,1
    2b1c:	0d 40 69 08 	wl16	r8,0x348
    2b20:	0d 60 01 03 	wh16	r8,0x3
    2b24:	10 40 01 08 	ld32	r8,r8
    2b28:	0d 42 8a 04 	wl16	r16,0x1444
    2b2c:	0d 60 02 03 	wh16	r16,0x3
    2b30:	10 40 02 10 	ld32	r16,r16
    2b34:	0d 44 a9 20 	wl16	r9,0x2540
    2b38:	0d 60 01 23 	wh16	r9,0x3
    2b3c:	10 40 01 29 	ld32	r9,r9
    2b40:	00 40 01 10 	mull	r8,r16
    2b44:	20 70 03 e2 	movepc	rret,8
    2b48:	14 30 f5 32 	br	10 <compare>,#al
    2b4c:	00 10 00 41 	add	r2,1
    2b50:	0d 40 69 0c 	wl16	r8,0x34c
    2b54:	0d 60 01 03 	wh16	r8,0x3
    2b58:	10 40 01 08 	ld32	r8,r8
    2b5c:	0d 42 8a 08 	wl16	r16,0x1448
    2b60:	0d 60 02 03 	wh16	r16,0x3
    2b64:	10 40 02 10 	ld32	r16,r16
    2b68:	0d 44 a9 24 	wl16	r9,0x2544
    2b6c:	0d 60 01 23 	wh16	r9,0x3
    2b70:	10 40 01 29 	ld32	r9,r9
    2b74:	00 40 01 10 	mull	r8,r16
    2b78:	20 70 03 e2 	movepc	rret,8
    2b7c:	14 30 f5 25 	br	10 <compare>,#al
    2b80:	00 10 00 41 	add	r2,1
    2b84:	0d 40 69 10 	wl16	r8,0x350
    2b88:	0d 60 01 03 	wh16	r8,0x3
    2b8c:	10 40 01 08 	ld32	r8,r8
    2b90:	0d 42 8a 0c 	wl16	r16,0x144c
    2b94:	0d 60 02 03 	wh16	r16,0x3
    2b98:	10 40 02 10 	ld32	r16,r16
    2b9c:	0d 44 a9 28 	wl16	r9,0x2548
    2ba0:	0d 60 01 23 	wh16	r9,0x3
    2ba4:	10 40 01 29 	ld32	r9,r9
    2ba8:	00 40 01 10 	mull	r8,r16
    2bac:	20 70 03 e2 	movepc	rret,8
    2bb0:	14 30 f5 18 	br	10 <compare>,#al
    2bb4:	00 10 00 41 	add	r2,1
    2bb8:	0d 40 69 14 	wl16	r8,0x354
    2bbc:	0d 60 01 03 	wh16	r8,0x3
    2bc0:	10 40 01 08 	ld32	r8,r8
    2bc4:	0d 42 8a 10 	wl16	r16,0x1450
    2bc8:	0d 60 02 03 	wh16	r16,0x3
    2bcc:	10 40 02 10 	ld32	r16,r16
    2bd0:	0d 44 a9 2c 	wl16	r9,0x254c
    2bd4:	0d 60 01 23 	wh16	r9,0x3
    2bd8:	10 40 01 29 	ld32	r9,r9
    2bdc:	00 40 01 10 	mull	r8,r16
    2be0:	20 70 03 e2 	movepc	rret,8
    2be4:	14 30 f5 0b 	br	10 <compare>,#al
    2be8:	00 10 00 41 	add	r2,1
    2bec:	0d 40 69 18 	wl16	r8,0x358
    2bf0:	0d 60 01 03 	wh16	r8,0x3
    2bf4:	10 40 01 08 	ld32	r8,r8
    2bf8:	0d 42 8a 14 	wl16	r16,0x1454
    2bfc:	0d 60 02 03 	wh16	r16,0x3
    2c00:	10 40 02 10 	ld32	r16,r16
    2c04:	0d 44 a9 30 	wl16	r9,0x2550
    2c08:	0d 60 01 23 	wh16	r9,0x3
    2c0c:	10 40 01 29 	ld32	r9,r9
    2c10:	00 40 01 10 	mull	r8,r16
    2c14:	20 70 03 e2 	movepc	rret,8
    2c18:	14 30 f4 fe 	br	10 <compare>,#al
    2c1c:	00 10 00 41 	add	r2,1
    2c20:	0d 40 69 1c 	wl16	r8,0x35c
    2c24:	0d 60 01 03 	wh16	r8,0x3
    2c28:	10 40 01 08 	ld32	r8,r8
    2c2c:	0d 42 8a 18 	wl16	r16,0x1458
    2c30:	0d 60 02 03 	wh16	r16,0x3
    2c34:	10 40 02 10 	ld32	r16,r16
    2c38:	0d 44 a9 34 	wl16	r9,0x2554
    2c3c:	0d 60 01 23 	wh16	r9,0x3
    2c40:	10 40 01 29 	ld32	r9,r9
    2c44:	00 40 01 10 	mull	r8,r16
    2c48:	20 70 03 e2 	movepc	rret,8
    2c4c:	14 30 f4 f1 	br	10 <compare>,#al
    2c50:	00 10 00 41 	add	r2,1
    2c54:	0d 40 6d 00 	wl16	r8,0x360
    2c58:	0d 60 01 03 	wh16	r8,0x3
    2c5c:	10 40 01 08 	ld32	r8,r8
    2c60:	0d 42 8a 1c 	wl16	r16,0x145c
    2c64:	0d 60 02 03 	wh16	r16,0x3
    2c68:	10 40 02 10 	ld32	r16,r16
    2c6c:	0d 44 a9 38 	wl16	r9,0x2558
    2c70:	0d 60 01 23 	wh16	r9,0x3
    2c74:	10 40 01 29 	ld32	r9,r9
    2c78:	00 40 01 10 	mull	r8,r16
    2c7c:	20 70 03 e2 	movepc	rret,8
    2c80:	14 30 f4 e4 	br	10 <compare>,#al
    2c84:	00 10 00 41 	add	r2,1
    2c88:	0d 40 6d 04 	wl16	r8,0x364
    2c8c:	0d 60 01 03 	wh16	r8,0x3
    2c90:	10 40 01 08 	ld32	r8,r8
    2c94:	0d 42 8e 00 	wl16	r16,0x1460
    2c98:	0d 60 02 03 	wh16	r16,0x3
    2c9c:	10 40 02 10 	ld32	r16,r16
    2ca0:	0d 44 a9 3c 	wl16	r9,0x255c
    2ca4:	0d 60 01 23 	wh16	r9,0x3
    2ca8:	10 40 01 29 	ld32	r9,r9
    2cac:	00 40 01 10 	mull	r8,r16
    2cb0:	20 70 03 e2 	movepc	rret,8
    2cb4:	14 30 f4 d7 	br	10 <compare>,#al
    2cb8:	00 10 00 41 	add	r2,1
    2cbc:	0d 40 6d 08 	wl16	r8,0x368
    2cc0:	0d 60 01 03 	wh16	r8,0x3
    2cc4:	10 40 01 08 	ld32	r8,r8
    2cc8:	0d 42 8e 04 	wl16	r16,0x1464
    2ccc:	0d 60 02 03 	wh16	r16,0x3
    2cd0:	10 40 02 10 	ld32	r16,r16
    2cd4:	0d 44 ad 20 	wl16	r9,0x2560
    2cd8:	0d 60 01 23 	wh16	r9,0x3
    2cdc:	10 40 01 29 	ld32	r9,r9
    2ce0:	00 40 01 10 	mull	r8,r16
    2ce4:	20 70 03 e2 	movepc	rret,8
    2ce8:	14 30 f4 ca 	br	10 <compare>,#al
    2cec:	00 10 00 41 	add	r2,1
    2cf0:	0d 40 6d 0c 	wl16	r8,0x36c
    2cf4:	0d 60 01 03 	wh16	r8,0x3
    2cf8:	10 40 01 08 	ld32	r8,r8
    2cfc:	0d 42 8e 08 	wl16	r16,0x1468
    2d00:	0d 60 02 03 	wh16	r16,0x3
    2d04:	10 40 02 10 	ld32	r16,r16
    2d08:	0d 44 ad 24 	wl16	r9,0x2564
    2d0c:	0d 60 01 23 	wh16	r9,0x3
    2d10:	10 40 01 29 	ld32	r9,r9
    2d14:	00 40 01 10 	mull	r8,r16
    2d18:	20 70 03 e2 	movepc	rret,8
    2d1c:	14 30 f4 bd 	br	10 <compare>,#al
    2d20:	00 10 00 41 	add	r2,1
    2d24:	0d 40 6d 10 	wl16	r8,0x370
    2d28:	0d 60 01 03 	wh16	r8,0x3
    2d2c:	10 40 01 08 	ld32	r8,r8
    2d30:	0d 42 8e 0c 	wl16	r16,0x146c
    2d34:	0d 60 02 03 	wh16	r16,0x3
    2d38:	10 40 02 10 	ld32	r16,r16
    2d3c:	0d 44 ad 28 	wl16	r9,0x2568
    2d40:	0d 60 01 23 	wh16	r9,0x3
    2d44:	10 40 01 29 	ld32	r9,r9
    2d48:	00 40 01 10 	mull	r8,r16
    2d4c:	20 70 03 e2 	movepc	rret,8
    2d50:	14 30 f4 b0 	br	10 <compare>,#al
    2d54:	00 10 00 41 	add	r2,1
    2d58:	0d 40 6d 14 	wl16	r8,0x374
    2d5c:	0d 60 01 03 	wh16	r8,0x3
    2d60:	10 40 01 08 	ld32	r8,r8
    2d64:	0d 42 8e 10 	wl16	r16,0x1470
    2d68:	0d 60 02 03 	wh16	r16,0x3
    2d6c:	10 40 02 10 	ld32	r16,r16
    2d70:	0d 44 ad 2c 	wl16	r9,0x256c
    2d74:	0d 60 01 23 	wh16	r9,0x3
    2d78:	10 40 01 29 	ld32	r9,r9
    2d7c:	00 40 01 10 	mull	r8,r16
    2d80:	20 70 03 e2 	movepc	rret,8
    2d84:	14 30 f4 a3 	br	10 <compare>,#al
    2d88:	00 10 00 41 	add	r2,1
    2d8c:	0d 40 6d 18 	wl16	r8,0x378
    2d90:	0d 60 01 03 	wh16	r8,0x3
    2d94:	10 40 01 08 	ld32	r8,r8
    2d98:	0d 42 8e 14 	wl16	r16,0x1474
    2d9c:	0d 60 02 03 	wh16	r16,0x3
    2da0:	10 40 02 10 	ld32	r16,r16
    2da4:	0d 44 ad 30 	wl16	r9,0x2570
    2da8:	0d 60 01 23 	wh16	r9,0x3
    2dac:	10 40 01 29 	ld32	r9,r9
    2db0:	00 40 01 10 	mull	r8,r16
    2db4:	20 70 03 e2 	movepc	rret,8
    2db8:	14 30 f4 96 	br	10 <compare>,#al
    2dbc:	00 10 00 41 	add	r2,1
    2dc0:	0d 40 6d 1c 	wl16	r8,0x37c
    2dc4:	0d 60 01 03 	wh16	r8,0x3
    2dc8:	10 40 01 08 	ld32	r8,r8
    2dcc:	0d 42 8e 18 	wl16	r16,0x1478
    2dd0:	0d 60 02 03 	wh16	r16,0x3
    2dd4:	10 40 02 10 	ld32	r16,r16
    2dd8:	0d 44 ad 34 	wl16	r9,0x2574
    2ddc:	0d 60 01 23 	wh16	r9,0x3
    2de0:	10 40 01 29 	ld32	r9,r9
    2de4:	00 40 01 10 	mull	r8,r16
    2de8:	20 70 03 e2 	movepc	rret,8
    2dec:	14 30 f4 89 	br	10 <compare>,#al
    2df0:	00 10 00 41 	add	r2,1
    2df4:	0d 40 71 00 	wl16	r8,0x380
    2df8:	0d 60 01 03 	wh16	r8,0x3
    2dfc:	10 40 01 08 	ld32	r8,r8
    2e00:	0d 42 8e 1c 	wl16	r16,0x147c
    2e04:	0d 60 02 03 	wh16	r16,0x3
    2e08:	10 40 02 10 	ld32	r16,r16
    2e0c:	0d 44 ad 38 	wl16	r9,0x2578
    2e10:	0d 60 01 23 	wh16	r9,0x3
    2e14:	10 40 01 29 	ld32	r9,r9
    2e18:	00 40 01 10 	mull	r8,r16
    2e1c:	20 70 03 e2 	movepc	rret,8
    2e20:	14 30 f4 7c 	br	10 <compare>,#al
    2e24:	00 10 00 41 	add	r2,1
    2e28:	0d 40 71 04 	wl16	r8,0x384
    2e2c:	0d 60 01 03 	wh16	r8,0x3
    2e30:	10 40 01 08 	ld32	r8,r8
    2e34:	0d 42 92 00 	wl16	r16,0x1480
    2e38:	0d 60 02 03 	wh16	r16,0x3
    2e3c:	10 40 02 10 	ld32	r16,r16
    2e40:	0d 44 ad 3c 	wl16	r9,0x257c
    2e44:	0d 60 01 23 	wh16	r9,0x3
    2e48:	10 40 01 29 	ld32	r9,r9
    2e4c:	00 40 01 10 	mull	r8,r16
    2e50:	20 70 03 e2 	movepc	rret,8
    2e54:	14 30 f4 6f 	br	10 <compare>,#al
    2e58:	00 10 00 41 	add	r2,1
    2e5c:	0d 40 71 08 	wl16	r8,0x388
    2e60:	0d 60 01 03 	wh16	r8,0x3
    2e64:	10 40 01 08 	ld32	r8,r8
    2e68:	0d 42 92 04 	wl16	r16,0x1484
    2e6c:	0d 60 02 03 	wh16	r16,0x3
    2e70:	10 40 02 10 	ld32	r16,r16
    2e74:	0d 44 b1 20 	wl16	r9,0x2580
    2e78:	0d 60 01 23 	wh16	r9,0x3
    2e7c:	10 40 01 29 	ld32	r9,r9
    2e80:	00 40 01 10 	mull	r8,r16
    2e84:	20 70 03 e2 	movepc	rret,8
    2e88:	14 30 f4 62 	br	10 <compare>,#al
    2e8c:	00 10 00 41 	add	r2,1
    2e90:	0d 40 71 0c 	wl16	r8,0x38c
    2e94:	0d 60 01 03 	wh16	r8,0x3
    2e98:	10 40 01 08 	ld32	r8,r8
    2e9c:	0d 42 92 08 	wl16	r16,0x1488
    2ea0:	0d 60 02 03 	wh16	r16,0x3
    2ea4:	10 40 02 10 	ld32	r16,r16
    2ea8:	0d 44 b1 24 	wl16	r9,0x2584
    2eac:	0d 60 01 23 	wh16	r9,0x3
    2eb0:	10 40 01 29 	ld32	r9,r9
    2eb4:	00 40 01 10 	mull	r8,r16
    2eb8:	20 70 03 e2 	movepc	rret,8
    2ebc:	14 30 f4 55 	br	10 <compare>,#al
    2ec0:	00 10 00 41 	add	r2,1
    2ec4:	0d 40 71 10 	wl16	r8,0x390
    2ec8:	0d 60 01 03 	wh16	r8,0x3
    2ecc:	10 40 01 08 	ld32	r8,r8
    2ed0:	0d 42 92 0c 	wl16	r16,0x148c
    2ed4:	0d 60 02 03 	wh16	r16,0x3
    2ed8:	10 40 02 10 	ld32	r16,r16
    2edc:	0d 44 b1 28 	wl16	r9,0x2588
    2ee0:	0d 60 01 23 	wh16	r9,0x3
    2ee4:	10 40 01 29 	ld32	r9,r9
    2ee8:	00 40 01 10 	mull	r8,r16
    2eec:	20 70 03 e2 	movepc	rret,8
    2ef0:	14 30 f4 48 	br	10 <compare>,#al
    2ef4:	00 10 00 41 	add	r2,1
    2ef8:	0d 40 71 14 	wl16	r8,0x394
    2efc:	0d 60 01 03 	wh16	r8,0x3
    2f00:	10 40 01 08 	ld32	r8,r8
    2f04:	0d 42 92 10 	wl16	r16,0x1490
    2f08:	0d 60 02 03 	wh16	r16,0x3
    2f0c:	10 40 02 10 	ld32	r16,r16
    2f10:	0d 44 b1 2c 	wl16	r9,0x258c
    2f14:	0d 60 01 23 	wh16	r9,0x3
    2f18:	10 40 01 29 	ld32	r9,r9
    2f1c:	00 40 01 10 	mull	r8,r16
    2f20:	20 70 03 e2 	movepc	rret,8
    2f24:	14 30 f4 3b 	br	10 <compare>,#al
    2f28:	00 10 00 41 	add	r2,1
    2f2c:	0d 40 71 18 	wl16	r8,0x398
    2f30:	0d 60 01 03 	wh16	r8,0x3
    2f34:	10 40 01 08 	ld32	r8,r8
    2f38:	0d 42 92 14 	wl16	r16,0x1494
    2f3c:	0d 60 02 03 	wh16	r16,0x3
    2f40:	10 40 02 10 	ld32	r16,r16
    2f44:	0d 44 b1 30 	wl16	r9,0x2590
    2f48:	0d 60 01 23 	wh16	r9,0x3
    2f4c:	10 40 01 29 	ld32	r9,r9
    2f50:	00 40 01 10 	mull	r8,r16
    2f54:	20 70 03 e2 	movepc	rret,8
    2f58:	14 30 f4 2e 	br	10 <compare>,#al
    2f5c:	00 10 00 41 	add	r2,1
    2f60:	0d 40 71 1c 	wl16	r8,0x39c
    2f64:	0d 60 01 03 	wh16	r8,0x3
    2f68:	10 40 01 08 	ld32	r8,r8
    2f6c:	0d 42 92 18 	wl16	r16,0x1498
    2f70:	0d 60 02 03 	wh16	r16,0x3
    2f74:	10 40 02 10 	ld32	r16,r16
    2f78:	0d 44 b1 34 	wl16	r9,0x2594
    2f7c:	0d 60 01 23 	wh16	r9,0x3
    2f80:	10 40 01 29 	ld32	r9,r9
    2f84:	00 40 01 10 	mull	r8,r16
    2f88:	20 70 03 e2 	movepc	rret,8
    2f8c:	14 30 f4 21 	br	10 <compare>,#al
    2f90:	00 10 00 41 	add	r2,1
    2f94:	0d 40 75 00 	wl16	r8,0x3a0
    2f98:	0d 60 01 03 	wh16	r8,0x3
    2f9c:	10 40 01 08 	ld32	r8,r8
    2fa0:	0d 42 92 1c 	wl16	r16,0x149c
    2fa4:	0d 60 02 03 	wh16	r16,0x3
    2fa8:	10 40 02 10 	ld32	r16,r16
    2fac:	0d 44 b1 38 	wl16	r9,0x2598
    2fb0:	0d 60 01 23 	wh16	r9,0x3
    2fb4:	10 40 01 29 	ld32	r9,r9
    2fb8:	00 40 01 10 	mull	r8,r16
    2fbc:	20 70 03 e2 	movepc	rret,8
    2fc0:	14 30 f4 14 	br	10 <compare>,#al
    2fc4:	00 10 00 41 	add	r2,1
    2fc8:	0d 40 75 04 	wl16	r8,0x3a4
    2fcc:	0d 60 01 03 	wh16	r8,0x3
    2fd0:	10 40 01 08 	ld32	r8,r8
    2fd4:	0d 42 96 00 	wl16	r16,0x14a0
    2fd8:	0d 60 02 03 	wh16	r16,0x3
    2fdc:	10 40 02 10 	ld32	r16,r16
    2fe0:	0d 44 b1 3c 	wl16	r9,0x259c
    2fe4:	0d 60 01 23 	wh16	r9,0x3
    2fe8:	10 40 01 29 	ld32	r9,r9
    2fec:	00 40 01 10 	mull	r8,r16
    2ff0:	20 70 03 e2 	movepc	rret,8
    2ff4:	14 30 f4 07 	br	10 <compare>,#al
    2ff8:	00 10 00 41 	add	r2,1
    2ffc:	0d 40 75 08 	wl16	r8,0x3a8
    3000:	0d 60 01 03 	wh16	r8,0x3
    3004:	10 40 01 08 	ld32	r8,r8
    3008:	0d 42 96 04 	wl16	r16,0x14a4
    300c:	0d 60 02 03 	wh16	r16,0x3
    3010:	10 40 02 10 	ld32	r16,r16
    3014:	0d 44 b5 20 	wl16	r9,0x25a0
    3018:	0d 60 01 23 	wh16	r9,0x3
    301c:	10 40 01 29 	ld32	r9,r9
    3020:	00 40 01 10 	mull	r8,r16
    3024:	20 70 03 e2 	movepc	rret,8
    3028:	14 30 f3 fa 	br	10 <compare>,#al
    302c:	00 10 00 41 	add	r2,1
    3030:	0d 40 75 0c 	wl16	r8,0x3ac
    3034:	0d 60 01 03 	wh16	r8,0x3
    3038:	10 40 01 08 	ld32	r8,r8
    303c:	0d 42 96 08 	wl16	r16,0x14a8
    3040:	0d 60 02 03 	wh16	r16,0x3
    3044:	10 40 02 10 	ld32	r16,r16
    3048:	0d 44 b5 24 	wl16	r9,0x25a4
    304c:	0d 60 01 23 	wh16	r9,0x3
    3050:	10 40 01 29 	ld32	r9,r9
    3054:	00 40 01 10 	mull	r8,r16
    3058:	20 70 03 e2 	movepc	rret,8
    305c:	14 30 f3 ed 	br	10 <compare>,#al
    3060:	00 10 00 41 	add	r2,1
    3064:	0d 40 75 10 	wl16	r8,0x3b0
    3068:	0d 60 01 03 	wh16	r8,0x3
    306c:	10 40 01 08 	ld32	r8,r8
    3070:	0d 42 96 0c 	wl16	r16,0x14ac
    3074:	0d 60 02 03 	wh16	r16,0x3
    3078:	10 40 02 10 	ld32	r16,r16
    307c:	0d 44 b5 28 	wl16	r9,0x25a8
    3080:	0d 60 01 23 	wh16	r9,0x3
    3084:	10 40 01 29 	ld32	r9,r9
    3088:	00 40 01 10 	mull	r8,r16
    308c:	20 70 03 e2 	movepc	rret,8
    3090:	14 30 f3 e0 	br	10 <compare>,#al
    3094:	00 10 00 41 	add	r2,1
    3098:	0d 40 75 14 	wl16	r8,0x3b4
    309c:	0d 60 01 03 	wh16	r8,0x3
    30a0:	10 40 01 08 	ld32	r8,r8
    30a4:	0d 42 96 10 	wl16	r16,0x14b0
    30a8:	0d 60 02 03 	wh16	r16,0x3
    30ac:	10 40 02 10 	ld32	r16,r16
    30b0:	0d 44 b5 2c 	wl16	r9,0x25ac
    30b4:	0d 60 01 23 	wh16	r9,0x3
    30b8:	10 40 01 29 	ld32	r9,r9
    30bc:	00 40 01 10 	mull	r8,r16
    30c0:	20 70 03 e2 	movepc	rret,8
    30c4:	14 30 f3 d3 	br	10 <compare>,#al
    30c8:	00 10 00 41 	add	r2,1
    30cc:	0d 40 75 18 	wl16	r8,0x3b8
    30d0:	0d 60 01 03 	wh16	r8,0x3
    30d4:	10 40 01 08 	ld32	r8,r8
    30d8:	0d 42 96 14 	wl16	r16,0x14b4
    30dc:	0d 60 02 03 	wh16	r16,0x3
    30e0:	10 40 02 10 	ld32	r16,r16
    30e4:	0d 44 b5 30 	wl16	r9,0x25b0
    30e8:	0d 60 01 23 	wh16	r9,0x3
    30ec:	10 40 01 29 	ld32	r9,r9
    30f0:	00 40 01 10 	mull	r8,r16
    30f4:	20 70 03 e2 	movepc	rret,8
    30f8:	14 30 f3 c6 	br	10 <compare>,#al
    30fc:	00 10 00 41 	add	r2,1
    3100:	0d 40 75 1c 	wl16	r8,0x3bc
    3104:	0d 60 01 03 	wh16	r8,0x3
    3108:	10 40 01 08 	ld32	r8,r8
    310c:	0d 42 96 18 	wl16	r16,0x14b8
    3110:	0d 60 02 03 	wh16	r16,0x3
    3114:	10 40 02 10 	ld32	r16,r16
    3118:	0d 44 b5 34 	wl16	r9,0x25b4
    311c:	0d 60 01 23 	wh16	r9,0x3
    3120:	10 40 01 29 	ld32	r9,r9
    3124:	00 40 01 10 	mull	r8,r16
    3128:	20 70 03 e2 	movepc	rret,8
    312c:	14 30 f3 b9 	br	10 <compare>,#al
    3130:	00 10 00 41 	add	r2,1
    3134:	0d 40 79 00 	wl16	r8,0x3c0
    3138:	0d 60 01 03 	wh16	r8,0x3
    313c:	10 40 01 08 	ld32	r8,r8
    3140:	0d 42 96 1c 	wl16	r16,0x14bc
    3144:	0d 60 02 03 	wh16	r16,0x3
    3148:	10 40 02 10 	ld32	r16,r16
    314c:	0d 44 b5 38 	wl16	r9,0x25b8
    3150:	0d 60 01 23 	wh16	r9,0x3
    3154:	10 40 01 29 	ld32	r9,r9
    3158:	00 40 01 10 	mull	r8,r16
    315c:	20 70 03 e2 	movepc	rret,8
    3160:	14 30 f3 ac 	br	10 <compare>,#al
    3164:	00 10 00 41 	add	r2,1
    3168:	0d 40 79 04 	wl16	r8,0x3c4
    316c:	0d 60 01 03 	wh16	r8,0x3
    3170:	10 40 01 08 	ld32	r8,r8
    3174:	0d 42 9a 00 	wl16	r16,0x14c0
    3178:	0d 60 02 03 	wh16	r16,0x3
    317c:	10 40 02 10 	ld32	r16,r16
    3180:	0d 44 b5 3c 	wl16	r9,0x25bc
    3184:	0d 60 01 23 	wh16	r9,0x3
    3188:	10 40 01 29 	ld32	r9,r9
    318c:	00 40 01 10 	mull	r8,r16
    3190:	20 70 03 e2 	movepc	rret,8
    3194:	14 30 f3 9f 	br	10 <compare>,#al
    3198:	00 10 00 41 	add	r2,1
    319c:	0d 40 79 08 	wl16	r8,0x3c8
    31a0:	0d 60 01 03 	wh16	r8,0x3
    31a4:	10 40 01 08 	ld32	r8,r8
    31a8:	0d 42 9a 04 	wl16	r16,0x14c4
    31ac:	0d 60 02 03 	wh16	r16,0x3
    31b0:	10 40 02 10 	ld32	r16,r16
    31b4:	0d 44 b9 20 	wl16	r9,0x25c0
    31b8:	0d 60 01 23 	wh16	r9,0x3
    31bc:	10 40 01 29 	ld32	r9,r9
    31c0:	00 40 01 10 	mull	r8,r16
    31c4:	20 70 03 e2 	movepc	rret,8
    31c8:	14 30 f3 92 	br	10 <compare>,#al
    31cc:	00 10 00 41 	add	r2,1
    31d0:	0d 40 79 0c 	wl16	r8,0x3cc
    31d4:	0d 60 01 03 	wh16	r8,0x3
    31d8:	10 40 01 08 	ld32	r8,r8
    31dc:	0d 42 9a 08 	wl16	r16,0x14c8
    31e0:	0d 60 02 03 	wh16	r16,0x3
    31e4:	10 40 02 10 	ld32	r16,r16
    31e8:	0d 44 b9 24 	wl16	r9,0x25c4
    31ec:	0d 60 01 23 	wh16	r9,0x3
    31f0:	10 40 01 29 	ld32	r9,r9
    31f4:	00 40 01 10 	mull	r8,r16
    31f8:	20 70 03 e2 	movepc	rret,8
    31fc:	14 30 f3 85 	br	10 <compare>,#al
    3200:	00 10 00 41 	add	r2,1
    3204:	0d 40 79 10 	wl16	r8,0x3d0
    3208:	0d 60 01 03 	wh16	r8,0x3
    320c:	10 40 01 08 	ld32	r8,r8
    3210:	0d 42 9a 0c 	wl16	r16,0x14cc
    3214:	0d 60 02 03 	wh16	r16,0x3
    3218:	10 40 02 10 	ld32	r16,r16
    321c:	0d 44 b9 28 	wl16	r9,0x25c8
    3220:	0d 60 01 23 	wh16	r9,0x3
    3224:	10 40 01 29 	ld32	r9,r9
    3228:	00 40 01 10 	mull	r8,r16
    322c:	20 70 03 e2 	movepc	rret,8
    3230:	14 30 f3 78 	br	10 <compare>,#al
    3234:	00 10 00 41 	add	r2,1
    3238:	0d 40 79 14 	wl16	r8,0x3d4
    323c:	0d 60 01 03 	wh16	r8,0x3
    3240:	10 40 01 08 	ld32	r8,r8
    3244:	0d 42 9a 10 	wl16	r16,0x14d0
    3248:	0d 60 02 03 	wh16	r16,0x3
    324c:	10 40 02 10 	ld32	r16,r16
    3250:	0d 44 b9 2c 	wl16	r9,0x25cc
    3254:	0d 60 01 23 	wh16	r9,0x3
    3258:	10 40 01 29 	ld32	r9,r9
    325c:	00 40 01 10 	mull	r8,r16
    3260:	20 70 03 e2 	movepc	rret,8
    3264:	14 30 f3 6b 	br	10 <compare>,#al
    3268:	00 10 00 41 	add	r2,1
    326c:	0d 40 79 18 	wl16	r8,0x3d8
    3270:	0d 60 01 03 	wh16	r8,0x3
    3274:	10 40 01 08 	ld32	r8,r8
    3278:	0d 42 9a 14 	wl16	r16,0x14d4
    327c:	0d 60 02 03 	wh16	r16,0x3
    3280:	10 40 02 10 	ld32	r16,r16
    3284:	0d 44 b9 30 	wl16	r9,0x25d0
    3288:	0d 60 01 23 	wh16	r9,0x3
    328c:	10 40 01 29 	ld32	r9,r9
    3290:	00 40 01 10 	mull	r8,r16
    3294:	20 70 03 e2 	movepc	rret,8
    3298:	14 30 f3 5e 	br	10 <compare>,#al
    329c:	00 10 00 41 	add	r2,1
    32a0:	0d 40 79 1c 	wl16	r8,0x3dc
    32a4:	0d 60 01 03 	wh16	r8,0x3
    32a8:	10 40 01 08 	ld32	r8,r8
    32ac:	0d 42 9a 18 	wl16	r16,0x14d8
    32b0:	0d 60 02 03 	wh16	r16,0x3
    32b4:	10 40 02 10 	ld32	r16,r16
    32b8:	0d 44 b9 34 	wl16	r9,0x25d4
    32bc:	0d 60 01 23 	wh16	r9,0x3
    32c0:	10 40 01 29 	ld32	r9,r9
    32c4:	00 40 01 10 	mull	r8,r16
    32c8:	20 70 03 e2 	movepc	rret,8
    32cc:	14 30 f3 51 	br	10 <compare>,#al
    32d0:	00 10 00 41 	add	r2,1
    32d4:	0d 40 7d 00 	wl16	r8,0x3e0
    32d8:	0d 60 01 03 	wh16	r8,0x3
    32dc:	10 40 01 08 	ld32	r8,r8
    32e0:	0d 42 9a 1c 	wl16	r16,0x14dc
    32e4:	0d 60 02 03 	wh16	r16,0x3
    32e8:	10 40 02 10 	ld32	r16,r16
    32ec:	0d 44 b9 38 	wl16	r9,0x25d8
    32f0:	0d 60 01 23 	wh16	r9,0x3
    32f4:	10 40 01 29 	ld32	r9,r9
    32f8:	00 40 01 10 	mull	r8,r16
    32fc:	20 70 03 e2 	movepc	rret,8
    3300:	14 30 f3 44 	br	10 <compare>,#al
    3304:	00 10 00 41 	add	r2,1
    3308:	0d 40 7d 04 	wl16	r8,0x3e4
    330c:	0d 60 01 03 	wh16	r8,0x3
    3310:	10 40 01 08 	ld32	r8,r8
    3314:	0d 42 9e 00 	wl16	r16,0x14e0
    3318:	0d 60 02 03 	wh16	r16,0x3
    331c:	10 40 02 10 	ld32	r16,r16
    3320:	0d 44 b9 3c 	wl16	r9,0x25dc
    3324:	0d 60 01 23 	wh16	r9,0x3
    3328:	10 40 01 29 	ld32	r9,r9
    332c:	00 40 01 10 	mull	r8,r16
    3330:	20 70 03 e2 	movepc	rret,8
    3334:	14 30 f3 37 	br	10 <compare>,#al
    3338:	00 10 00 41 	add	r2,1
    333c:	0d 40 7d 08 	wl16	r8,0x3e8
    3340:	0d 60 01 03 	wh16	r8,0x3
    3344:	10 40 01 08 	ld32	r8,r8
    3348:	0d 42 9e 04 	wl16	r16,0x14e4
    334c:	0d 60 02 03 	wh16	r16,0x3
    3350:	10 40 02 10 	ld32	r16,r16
    3354:	0d 44 bd 20 	wl16	r9,0x25e0
    3358:	0d 60 01 23 	wh16	r9,0x3
    335c:	10 40 01 29 	ld32	r9,r9
    3360:	00 40 01 10 	mull	r8,r16
    3364:	20 70 03 e2 	movepc	rret,8
    3368:	14 30 f3 2a 	br	10 <compare>,#al
    336c:	00 10 00 41 	add	r2,1
    3370:	0d 40 7d 0c 	wl16	r8,0x3ec
    3374:	0d 60 01 03 	wh16	r8,0x3
    3378:	10 40 01 08 	ld32	r8,r8
    337c:	0d 42 9e 08 	wl16	r16,0x14e8
    3380:	0d 60 02 03 	wh16	r16,0x3
    3384:	10 40 02 10 	ld32	r16,r16
    3388:	0d 44 bd 24 	wl16	r9,0x25e4
    338c:	0d 60 01 23 	wh16	r9,0x3
    3390:	10 40 01 29 	ld32	r9,r9
    3394:	00 40 01 10 	mull	r8,r16
    3398:	20 70 03 e2 	movepc	rret,8
    339c:	14 30 f3 1d 	br	10 <compare>,#al
    33a0:	00 10 00 41 	add	r2,1
    33a4:	0d 40 7d 10 	wl16	r8,0x3f0
    33a8:	0d 60 01 03 	wh16	r8,0x3
    33ac:	10 40 01 08 	ld32	r8,r8
    33b0:	0d 42 9e 0c 	wl16	r16,0x14ec
    33b4:	0d 60 02 03 	wh16	r16,0x3
    33b8:	10 40 02 10 	ld32	r16,r16
    33bc:	0d 44 bd 28 	wl16	r9,0x25e8
    33c0:	0d 60 01 23 	wh16	r9,0x3
    33c4:	10 40 01 29 	ld32	r9,r9
    33c8:	00 40 01 10 	mull	r8,r16
    33cc:	20 70 03 e2 	movepc	rret,8
    33d0:	14 30 f3 10 	br	10 <compare>,#al
    33d4:	00 10 00 41 	add	r2,1
    33d8:	0d 40 7d 14 	wl16	r8,0x3f4
    33dc:	0d 60 01 03 	wh16	r8,0x3
    33e0:	10 40 01 08 	ld32	r8,r8
    33e4:	0d 42 9e 10 	wl16	r16,0x14f0
    33e8:	0d 60 02 03 	wh16	r16,0x3
    33ec:	10 40 02 10 	ld32	r16,r16
    33f0:	0d 44 bd 2c 	wl16	r9,0x25ec
    33f4:	0d 60 01 23 	wh16	r9,0x3
    33f8:	10 40 01 29 	ld32	r9,r9
    33fc:	00 40 01 10 	mull	r8,r16
    3400:	20 70 03 e2 	movepc	rret,8
    3404:	14 30 f3 03 	br	10 <compare>,#al
    3408:	00 10 00 41 	add	r2,1
    340c:	0d 40 7d 18 	wl16	r8,0x3f8
    3410:	0d 60 01 03 	wh16	r8,0x3
    3414:	10 40 01 08 	ld32	r8,r8
    3418:	0d 42 9e 14 	wl16	r16,0x14f4
    341c:	0d 60 02 03 	wh16	r16,0x3
    3420:	10 40 02 10 	ld32	r16,r16
    3424:	0d 44 bd 30 	wl16	r9,0x25f0
    3428:	0d 60 01 23 	wh16	r9,0x3
    342c:	10 40 01 29 	ld32	r9,r9
    3430:	00 40 01 10 	mull	r8,r16
    3434:	20 70 03 e2 	movepc	rret,8
    3438:	14 30 f2 f6 	br	10 <compare>,#al
    343c:	00 10 00 41 	add	r2,1
    3440:	0d 40 7d 1c 	wl16	r8,0x3fc
    3444:	0d 60 01 03 	wh16	r8,0x3
    3448:	10 40 01 08 	ld32	r8,r8
    344c:	0d 42 9e 18 	wl16	r16,0x14f8
    3450:	0d 60 02 03 	wh16	r16,0x3
    3454:	10 40 02 10 	ld32	r16,r16
    3458:	0d 44 bd 34 	wl16	r9,0x25f4
    345c:	0d 60 01 23 	wh16	r9,0x3
    3460:	10 40 01 29 	ld32	r9,r9
    3464:	00 40 01 10 	mull	r8,r16
    3468:	20 70 03 e2 	movepc	rret,8
    346c:	14 30 f2 e9 	br	10 <compare>,#al
    3470:	00 10 00 41 	add	r2,1
    3474:	0d 40 81 00 	wl16	r8,0x400
    3478:	0d 60 01 03 	wh16	r8,0x3
    347c:	10 40 01 08 	ld32	r8,r8
    3480:	0d 42 9e 1c 	wl16	r16,0x14fc
    3484:	0d 60 02 03 	wh16	r16,0x3
    3488:	10 40 02 10 	ld32	r16,r16
    348c:	0d 44 bd 38 	wl16	r9,0x25f8
    3490:	0d 60 01 23 	wh16	r9,0x3
    3494:	10 40 01 29 	ld32	r9,r9
    3498:	00 40 01 10 	mull	r8,r16
    349c:	20 70 03 e2 	movepc	rret,8
    34a0:	14 30 f2 dc 	br	10 <compare>,#al
    34a4:	00 10 00 41 	add	r2,1
    34a8:	0d 40 81 04 	wl16	r8,0x404
    34ac:	0d 60 01 03 	wh16	r8,0x3
    34b0:	10 40 01 08 	ld32	r8,r8
    34b4:	0d 42 a2 00 	wl16	r16,0x1500
    34b8:	0d 60 02 03 	wh16	r16,0x3
    34bc:	10 40 02 10 	ld32	r16,r16
    34c0:	0d 44 bd 3c 	wl16	r9,0x25fc
    34c4:	0d 60 01 23 	wh16	r9,0x3
    34c8:	10 40 01 29 	ld32	r9,r9
    34cc:	00 40 01 10 	mull	r8,r16
    34d0:	20 70 03 e2 	movepc	rret,8
    34d4:	14 30 f2 cf 	br	10 <compare>,#al
    34d8:	00 10 00 41 	add	r2,1
    34dc:	0d 40 81 08 	wl16	r8,0x408
    34e0:	0d 60 01 03 	wh16	r8,0x3
    34e4:	10 40 01 08 	ld32	r8,r8
    34e8:	0d 42 a2 04 	wl16	r16,0x1504
    34ec:	0d 60 02 03 	wh16	r16,0x3
    34f0:	10 40 02 10 	ld32	r16,r16
    34f4:	0d 44 c1 20 	wl16	r9,0x2600
    34f8:	0d 60 01 23 	wh16	r9,0x3
    34fc:	10 40 01 29 	ld32	r9,r9
    3500:	00 40 01 10 	mull	r8,r16
    3504:	20 70 03 e2 	movepc	rret,8
    3508:	14 30 f2 c2 	br	10 <compare>,#al
    350c:	00 10 00 41 	add	r2,1
    3510:	0d 40 81 0c 	wl16	r8,0x40c
    3514:	0d 60 01 03 	wh16	r8,0x3
    3518:	10 40 01 08 	ld32	r8,r8
    351c:	0d 42 a2 08 	wl16	r16,0x1508
    3520:	0d 60 02 03 	wh16	r16,0x3
    3524:	10 40 02 10 	ld32	r16,r16
    3528:	0d 44 c1 24 	wl16	r9,0x2604
    352c:	0d 60 01 23 	wh16	r9,0x3
    3530:	10 40 01 29 	ld32	r9,r9
    3534:	00 40 01 10 	mull	r8,r16
    3538:	20 70 03 e2 	movepc	rret,8
    353c:	14 30 f2 b5 	br	10 <compare>,#al
    3540:	00 10 00 41 	add	r2,1
    3544:	0d 40 81 10 	wl16	r8,0x410
    3548:	0d 60 01 03 	wh16	r8,0x3
    354c:	10 40 01 08 	ld32	r8,r8
    3550:	0d 42 a2 0c 	wl16	r16,0x150c
    3554:	0d 60 02 03 	wh16	r16,0x3
    3558:	10 40 02 10 	ld32	r16,r16
    355c:	0d 44 c1 28 	wl16	r9,0x2608
    3560:	0d 60 01 23 	wh16	r9,0x3
    3564:	10 40 01 29 	ld32	r9,r9
    3568:	00 40 01 10 	mull	r8,r16
    356c:	20 70 03 e2 	movepc	rret,8
    3570:	14 30 f2 a8 	br	10 <compare>,#al
    3574:	00 10 00 41 	add	r2,1
    3578:	0d 40 81 14 	wl16	r8,0x414
    357c:	0d 60 01 03 	wh16	r8,0x3
    3580:	10 40 01 08 	ld32	r8,r8
    3584:	0d 42 a2 10 	wl16	r16,0x1510
    3588:	0d 60 02 03 	wh16	r16,0x3
    358c:	10 40 02 10 	ld32	r16,r16
    3590:	0d 44 c1 2c 	wl16	r9,0x260c
    3594:	0d 60 01 23 	wh16	r9,0x3
    3598:	10 40 01 29 	ld32	r9,r9
    359c:	00 40 01 10 	mull	r8,r16
    35a0:	20 70 03 e2 	movepc	rret,8
    35a4:	14 30 f2 9b 	br	10 <compare>,#al
    35a8:	00 10 00 41 	add	r2,1
    35ac:	0d 40 81 18 	wl16	r8,0x418
    35b0:	0d 60 01 03 	wh16	r8,0x3
    35b4:	10 40 01 08 	ld32	r8,r8
    35b8:	0d 42 a2 14 	wl16	r16,0x1514
    35bc:	0d 60 02 03 	wh16	r16,0x3
    35c0:	10 40 02 10 	ld32	r16,r16
    35c4:	0d 44 c1 30 	wl16	r9,0x2610
    35c8:	0d 60 01 23 	wh16	r9,0x3
    35cc:	10 40 01 29 	ld32	r9,r9
    35d0:	00 40 01 10 	mull	r8,r16
    35d4:	20 70 03 e2 	movepc	rret,8
    35d8:	14 30 f2 8e 	br	10 <compare>,#al
    35dc:	00 10 00 41 	add	r2,1
    35e0:	0d 40 81 1c 	wl16	r8,0x41c
    35e4:	0d 60 01 03 	wh16	r8,0x3
    35e8:	10 40 01 08 	ld32	r8,r8
    35ec:	0d 42 a2 18 	wl16	r16,0x1518
    35f0:	0d 60 02 03 	wh16	r16,0x3
    35f4:	10 40 02 10 	ld32	r16,r16
    35f8:	0d 44 c1 34 	wl16	r9,0x2614
    35fc:	0d 60 01 23 	wh16	r9,0x3
    3600:	10 40 01 29 	ld32	r9,r9
    3604:	00 40 01 10 	mull	r8,r16
    3608:	20 70 03 e2 	movepc	rret,8
    360c:	14 30 f2 81 	br	10 <compare>,#al
    3610:	00 10 00 41 	add	r2,1
    3614:	0d 40 85 00 	wl16	r8,0x420
    3618:	0d 60 01 03 	wh16	r8,0x3
    361c:	10 40 01 08 	ld32	r8,r8
    3620:	0d 42 a2 1c 	wl16	r16,0x151c
    3624:	0d 60 02 03 	wh16	r16,0x3
    3628:	10 40 02 10 	ld32	r16,r16
    362c:	0d 44 c1 38 	wl16	r9,0x2618
    3630:	0d 60 01 23 	wh16	r9,0x3
    3634:	10 40 01 29 	ld32	r9,r9
    3638:	00 40 01 10 	mull	r8,r16
    363c:	20 70 03 e2 	movepc	rret,8
    3640:	14 30 f2 74 	br	10 <compare>,#al
    3644:	00 10 00 41 	add	r2,1
    3648:	0d 40 85 04 	wl16	r8,0x424
    364c:	0d 60 01 03 	wh16	r8,0x3
    3650:	10 40 01 08 	ld32	r8,r8
    3654:	0d 42 a6 00 	wl16	r16,0x1520
    3658:	0d 60 02 03 	wh16	r16,0x3
    365c:	10 40 02 10 	ld32	r16,r16
    3660:	0d 44 c1 3c 	wl16	r9,0x261c
    3664:	0d 60 01 23 	wh16	r9,0x3
    3668:	10 40 01 29 	ld32	r9,r9
    366c:	00 40 01 10 	mull	r8,r16
    3670:	20 70 03 e2 	movepc	rret,8
    3674:	14 30 f2 67 	br	10 <compare>,#al
    3678:	00 10 00 41 	add	r2,1
    367c:	0d 40 85 08 	wl16	r8,0x428
    3680:	0d 60 01 03 	wh16	r8,0x3
    3684:	10 40 01 08 	ld32	r8,r8
    3688:	0d 42 a6 04 	wl16	r16,0x1524
    368c:	0d 60 02 03 	wh16	r16,0x3
    3690:	10 40 02 10 	ld32	r16,r16
    3694:	0d 44 c5 20 	wl16	r9,0x2620
    3698:	0d 60 01 23 	wh16	r9,0x3
    369c:	10 40 01 29 	ld32	r9,r9
    36a0:	00 40 01 10 	mull	r8,r16
    36a4:	20 70 03 e2 	movepc	rret,8
    36a8:	14 30 f2 5a 	br	10 <compare>,#al
    36ac:	00 10 00 41 	add	r2,1
    36b0:	0d 40 85 0c 	wl16	r8,0x42c
    36b4:	0d 60 01 03 	wh16	r8,0x3
    36b8:	10 40 01 08 	ld32	r8,r8
    36bc:	0d 42 a6 08 	wl16	r16,0x1528
    36c0:	0d 60 02 03 	wh16	r16,0x3
    36c4:	10 40 02 10 	ld32	r16,r16
    36c8:	0d 44 c5 24 	wl16	r9,0x2624
    36cc:	0d 60 01 23 	wh16	r9,0x3
    36d0:	10 40 01 29 	ld32	r9,r9
    36d4:	00 40 01 10 	mull	r8,r16
    36d8:	20 70 03 e2 	movepc	rret,8
    36dc:	14 30 f2 4d 	br	10 <compare>,#al
    36e0:	00 10 00 41 	add	r2,1
    36e4:	0d 40 85 10 	wl16	r8,0x430
    36e8:	0d 60 01 03 	wh16	r8,0x3
    36ec:	10 40 01 08 	ld32	r8,r8
    36f0:	0d 42 a6 0c 	wl16	r16,0x152c
    36f4:	0d 60 02 03 	wh16	r16,0x3
    36f8:	10 40 02 10 	ld32	r16,r16
    36fc:	0d 44 c5 28 	wl16	r9,0x2628
    3700:	0d 60 01 23 	wh16	r9,0x3
    3704:	10 40 01 29 	ld32	r9,r9
    3708:	00 40 01 10 	mull	r8,r16
    370c:	20 70 03 e2 	movepc	rret,8
    3710:	14 30 f2 40 	br	10 <compare>,#al
    3714:	00 10 00 41 	add	r2,1
    3718:	0d 40 85 14 	wl16	r8,0x434
    371c:	0d 60 01 03 	wh16	r8,0x3
    3720:	10 40 01 08 	ld32	r8,r8
    3724:	0d 42 a6 10 	wl16	r16,0x1530
    3728:	0d 60 02 03 	wh16	r16,0x3
    372c:	10 40 02 10 	ld32	r16,r16
    3730:	0d 44 c5 2c 	wl16	r9,0x262c
    3734:	0d 60 01 23 	wh16	r9,0x3
    3738:	10 40 01 29 	ld32	r9,r9
    373c:	00 40 01 10 	mull	r8,r16
    3740:	20 70 03 e2 	movepc	rret,8
    3744:	14 30 f2 33 	br	10 <compare>,#al
    3748:	00 10 00 41 	add	r2,1
    374c:	0d 40 85 18 	wl16	r8,0x438
    3750:	0d 60 01 03 	wh16	r8,0x3
    3754:	10 40 01 08 	ld32	r8,r8
    3758:	0d 42 a6 14 	wl16	r16,0x1534
    375c:	0d 60 02 03 	wh16	r16,0x3
    3760:	10 40 02 10 	ld32	r16,r16
    3764:	0d 44 c5 30 	wl16	r9,0x2630
    3768:	0d 60 01 23 	wh16	r9,0x3
    376c:	10 40 01 29 	ld32	r9,r9
    3770:	00 40 01 10 	mull	r8,r16
    3774:	20 70 03 e2 	movepc	rret,8
    3778:	14 30 f2 26 	br	10 <compare>,#al
    377c:	00 10 00 41 	add	r2,1
    3780:	0d 40 85 1c 	wl16	r8,0x43c
    3784:	0d 60 01 03 	wh16	r8,0x3
    3788:	10 40 01 08 	ld32	r8,r8
    378c:	0d 42 a6 18 	wl16	r16,0x1538
    3790:	0d 60 02 03 	wh16	r16,0x3
    3794:	10 40 02 10 	ld32	r16,r16
    3798:	0d 44 c5 34 	wl16	r9,0x2634
    379c:	0d 60 01 23 	wh16	r9,0x3
    37a0:	10 40 01 29 	ld32	r9,r9
    37a4:	00 40 01 10 	mull	r8,r16
    37a8:	20 70 03 e2 	movepc	rret,8
    37ac:	14 30 f2 19 	br	10 <compare>,#al
    37b0:	00 10 00 41 	add	r2,1
    37b4:	0d 40 89 00 	wl16	r8,0x440
    37b8:	0d 60 01 03 	wh16	r8,0x3
    37bc:	10 40 01 08 	ld32	r8,r8
    37c0:	0d 42 a6 1c 	wl16	r16,0x153c
    37c4:	0d 60 02 03 	wh16	r16,0x3
    37c8:	10 40 02 10 	ld32	r16,r16
    37cc:	0d 44 c5 38 	wl16	r9,0x2638
    37d0:	0d 60 01 23 	wh16	r9,0x3
    37d4:	10 40 01 29 	ld32	r9,r9
    37d8:	00 40 01 10 	mull	r8,r16
    37dc:	20 70 03 e2 	movepc	rret,8
    37e0:	14 30 f2 0c 	br	10 <compare>,#al
    37e4:	00 10 00 41 	add	r2,1
    37e8:	0d 40 89 04 	wl16	r8,0x444
    37ec:	0d 60 01 03 	wh16	r8,0x3
    37f0:	10 40 01 08 	ld32	r8,r8
    37f4:	0d 42 aa 00 	wl16	r16,0x1540
    37f8:	0d 60 02 03 	wh16	r16,0x3
    37fc:	10 40 02 10 	ld32	r16,r16
    3800:	0d 44 c5 3c 	wl16	r9,0x263c
    3804:	0d 60 01 23 	wh16	r9,0x3
    3808:	10 40 01 29 	ld32	r9,r9
    380c:	00 40 01 10 	mull	r8,r16
    3810:	20 70 03 e2 	movepc	rret,8
    3814:	14 30 f1 ff 	br	10 <compare>,#al
    3818:	00 10 00 41 	add	r2,1
    381c:	0d 40 89 08 	wl16	r8,0x448
    3820:	0d 60 01 03 	wh16	r8,0x3
    3824:	10 40 01 08 	ld32	r8,r8
    3828:	0d 42 aa 04 	wl16	r16,0x1544
    382c:	0d 60 02 03 	wh16	r16,0x3
    3830:	10 40 02 10 	ld32	r16,r16
    3834:	0d 44 c9 20 	wl16	r9,0x2640
    3838:	0d 60 01 23 	wh16	r9,0x3
    383c:	10 40 01 29 	ld32	r9,r9
    3840:	00 40 01 10 	mull	r8,r16
    3844:	20 70 03 e2 	movepc	rret,8
    3848:	14 30 f1 f2 	br	10 <compare>,#al
    384c:	00 10 00 41 	add	r2,1
    3850:	0d 40 89 0c 	wl16	r8,0x44c
    3854:	0d 60 01 03 	wh16	r8,0x3
    3858:	10 40 01 08 	ld32	r8,r8
    385c:	0d 42 aa 08 	wl16	r16,0x1548
    3860:	0d 60 02 03 	wh16	r16,0x3
    3864:	10 40 02 10 	ld32	r16,r16
    3868:	0d 44 c9 24 	wl16	r9,0x2644
    386c:	0d 60 01 23 	wh16	r9,0x3
    3870:	10 40 01 29 	ld32	r9,r9
    3874:	00 40 01 10 	mull	r8,r16
    3878:	20 70 03 e2 	movepc	rret,8
    387c:	14 30 f1 e5 	br	10 <compare>,#al
    3880:	00 10 00 41 	add	r2,1
    3884:	0d 40 89 10 	wl16	r8,0x450
    3888:	0d 60 01 03 	wh16	r8,0x3
    388c:	10 40 01 08 	ld32	r8,r8
    3890:	0d 42 aa 0c 	wl16	r16,0x154c
    3894:	0d 60 02 03 	wh16	r16,0x3
    3898:	10 40 02 10 	ld32	r16,r16
    389c:	0d 44 c9 28 	wl16	r9,0x2648
    38a0:	0d 60 01 23 	wh16	r9,0x3
    38a4:	10 40 01 29 	ld32	r9,r9
    38a8:	00 40 01 10 	mull	r8,r16
    38ac:	20 70 03 e2 	movepc	rret,8
    38b0:	14 30 f1 d8 	br	10 <compare>,#al
    38b4:	00 10 00 41 	add	r2,1
    38b8:	0d 40 89 14 	wl16	r8,0x454
    38bc:	0d 60 01 03 	wh16	r8,0x3
    38c0:	10 40 01 08 	ld32	r8,r8
    38c4:	0d 42 aa 10 	wl16	r16,0x1550
    38c8:	0d 60 02 03 	wh16	r16,0x3
    38cc:	10 40 02 10 	ld32	r16,r16
    38d0:	0d 44 c9 2c 	wl16	r9,0x264c
    38d4:	0d 60 01 23 	wh16	r9,0x3
    38d8:	10 40 01 29 	ld32	r9,r9
    38dc:	00 40 01 10 	mull	r8,r16
    38e0:	20 70 03 e2 	movepc	rret,8
    38e4:	14 30 f1 cb 	br	10 <compare>,#al
    38e8:	00 10 00 41 	add	r2,1
    38ec:	0d 40 89 18 	wl16	r8,0x458
    38f0:	0d 60 01 03 	wh16	r8,0x3
    38f4:	10 40 01 08 	ld32	r8,r8
    38f8:	0d 42 aa 14 	wl16	r16,0x1554
    38fc:	0d 60 02 03 	wh16	r16,0x3
    3900:	10 40 02 10 	ld32	r16,r16
    3904:	0d 44 c9 30 	wl16	r9,0x2650
    3908:	0d 60 01 23 	wh16	r9,0x3
    390c:	10 40 01 29 	ld32	r9,r9
    3910:	00 40 01 10 	mull	r8,r16
    3914:	20 70 03 e2 	movepc	rret,8
    3918:	14 30 f1 be 	br	10 <compare>,#al
    391c:	00 10 00 41 	add	r2,1
    3920:	0d 40 89 1c 	wl16	r8,0x45c
    3924:	0d 60 01 03 	wh16	r8,0x3
    3928:	10 40 01 08 	ld32	r8,r8
    392c:	0d 42 aa 18 	wl16	r16,0x1558
    3930:	0d 60 02 03 	wh16	r16,0x3
    3934:	10 40 02 10 	ld32	r16,r16
    3938:	0d 44 c9 34 	wl16	r9,0x2654
    393c:	0d 60 01 23 	wh16	r9,0x3
    3940:	10 40 01 29 	ld32	r9,r9
    3944:	00 40 01 10 	mull	r8,r16
    3948:	20 70 03 e2 	movepc	rret,8
    394c:	14 30 f1 b1 	br	10 <compare>,#al
    3950:	00 10 00 41 	add	r2,1
    3954:	0d 40 8d 00 	wl16	r8,0x460
    3958:	0d 60 01 03 	wh16	r8,0x3
    395c:	10 40 01 08 	ld32	r8,r8
    3960:	0d 42 aa 1c 	wl16	r16,0x155c
    3964:	0d 60 02 03 	wh16	r16,0x3
    3968:	10 40 02 10 	ld32	r16,r16
    396c:	0d 44 c9 38 	wl16	r9,0x2658
    3970:	0d 60 01 23 	wh16	r9,0x3
    3974:	10 40 01 29 	ld32	r9,r9
    3978:	00 40 01 10 	mull	r8,r16
    397c:	20 70 03 e2 	movepc	rret,8
    3980:	14 30 f1 a4 	br	10 <compare>,#al
    3984:	00 10 00 41 	add	r2,1
    3988:	0d 40 8d 04 	wl16	r8,0x464
    398c:	0d 60 01 03 	wh16	r8,0x3
    3990:	10 40 01 08 	ld32	r8,r8
    3994:	0d 42 ae 00 	wl16	r16,0x1560
    3998:	0d 60 02 03 	wh16	r16,0x3
    399c:	10 40 02 10 	ld32	r16,r16
    39a0:	0d 44 c9 3c 	wl16	r9,0x265c
    39a4:	0d 60 01 23 	wh16	r9,0x3
    39a8:	10 40 01 29 	ld32	r9,r9
    39ac:	00 40 01 10 	mull	r8,r16
    39b0:	20 70 03 e2 	movepc	rret,8
    39b4:	14 30 f1 97 	br	10 <compare>,#al
    39b8:	00 10 00 41 	add	r2,1
    39bc:	0d 40 8d 08 	wl16	r8,0x468
    39c0:	0d 60 01 03 	wh16	r8,0x3
    39c4:	10 40 01 08 	ld32	r8,r8
    39c8:	0d 42 ae 04 	wl16	r16,0x1564
    39cc:	0d 60 02 03 	wh16	r16,0x3
    39d0:	10 40 02 10 	ld32	r16,r16
    39d4:	0d 44 cd 20 	wl16	r9,0x2660
    39d8:	0d 60 01 23 	wh16	r9,0x3
    39dc:	10 40 01 29 	ld32	r9,r9
    39e0:	00 40 01 10 	mull	r8,r16
    39e4:	20 70 03 e2 	movepc	rret,8
    39e8:	14 30 f1 8a 	br	10 <compare>,#al
    39ec:	00 10 00 41 	add	r2,1
    39f0:	0d 40 8d 0c 	wl16	r8,0x46c
    39f4:	0d 60 01 03 	wh16	r8,0x3
    39f8:	10 40 01 08 	ld32	r8,r8
    39fc:	0d 42 ae 08 	wl16	r16,0x1568
    3a00:	0d 60 02 03 	wh16	r16,0x3
    3a04:	10 40 02 10 	ld32	r16,r16
    3a08:	0d 44 cd 24 	wl16	r9,0x2664
    3a0c:	0d 60 01 23 	wh16	r9,0x3
    3a10:	10 40 01 29 	ld32	r9,r9
    3a14:	00 40 01 10 	mull	r8,r16
    3a18:	20 70 03 e2 	movepc	rret,8
    3a1c:	14 30 f1 7d 	br	10 <compare>,#al
    3a20:	00 10 00 41 	add	r2,1
    3a24:	0d 40 8d 10 	wl16	r8,0x470
    3a28:	0d 60 01 03 	wh16	r8,0x3
    3a2c:	10 40 01 08 	ld32	r8,r8
    3a30:	0d 42 ae 0c 	wl16	r16,0x156c
    3a34:	0d 60 02 03 	wh16	r16,0x3
    3a38:	10 40 02 10 	ld32	r16,r16
    3a3c:	0d 44 cd 28 	wl16	r9,0x2668
    3a40:	0d 60 01 23 	wh16	r9,0x3
    3a44:	10 40 01 29 	ld32	r9,r9
    3a48:	00 40 01 10 	mull	r8,r16
    3a4c:	20 70 03 e2 	movepc	rret,8
    3a50:	14 30 f1 70 	br	10 <compare>,#al
    3a54:	00 10 00 41 	add	r2,1
    3a58:	0d 40 8d 14 	wl16	r8,0x474
    3a5c:	0d 60 01 03 	wh16	r8,0x3
    3a60:	10 40 01 08 	ld32	r8,r8
    3a64:	0d 42 ae 10 	wl16	r16,0x1570
    3a68:	0d 60 02 03 	wh16	r16,0x3
    3a6c:	10 40 02 10 	ld32	r16,r16
    3a70:	0d 44 cd 2c 	wl16	r9,0x266c
    3a74:	0d 60 01 23 	wh16	r9,0x3
    3a78:	10 40 01 29 	ld32	r9,r9
    3a7c:	00 40 01 10 	mull	r8,r16
    3a80:	20 70 03 e2 	movepc	rret,8
    3a84:	14 30 f1 63 	br	10 <compare>,#al
    3a88:	00 10 00 41 	add	r2,1
    3a8c:	0d 40 8d 18 	wl16	r8,0x478
    3a90:	0d 60 01 03 	wh16	r8,0x3
    3a94:	10 40 01 08 	ld32	r8,r8
    3a98:	0d 42 ae 14 	wl16	r16,0x1574
    3a9c:	0d 60 02 03 	wh16	r16,0x3
    3aa0:	10 40 02 10 	ld32	r16,r16
    3aa4:	0d 44 cd 30 	wl16	r9,0x2670
    3aa8:	0d 60 01 23 	wh16	r9,0x3
    3aac:	10 40 01 29 	ld32	r9,r9
    3ab0:	00 40 01 10 	mull	r8,r16
    3ab4:	20 70 03 e2 	movepc	rret,8
    3ab8:	14 30 f1 56 	br	10 <compare>,#al
    3abc:	00 10 00 41 	add	r2,1
    3ac0:	0d 40 8d 1c 	wl16	r8,0x47c
    3ac4:	0d 60 01 03 	wh16	r8,0x3
    3ac8:	10 40 01 08 	ld32	r8,r8
    3acc:	0d 42 ae 18 	wl16	r16,0x1578
    3ad0:	0d 60 02 03 	wh16	r16,0x3
    3ad4:	10 40 02 10 	ld32	r16,r16
    3ad8:	0d 44 cd 34 	wl16	r9,0x2674
    3adc:	0d 60 01 23 	wh16	r9,0x3
    3ae0:	10 40 01 29 	ld32	r9,r9
    3ae4:	00 40 01 10 	mull	r8,r16
    3ae8:	20 70 03 e2 	movepc	rret,8
    3aec:	14 30 f1 49 	br	10 <compare>,#al
    3af0:	00 10 00 41 	add	r2,1
    3af4:	0d 40 91 00 	wl16	r8,0x480
    3af8:	0d 60 01 03 	wh16	r8,0x3
    3afc:	10 40 01 08 	ld32	r8,r8
    3b00:	0d 42 ae 1c 	wl16	r16,0x157c
    3b04:	0d 60 02 03 	wh16	r16,0x3
    3b08:	10 40 02 10 	ld32	r16,r16
    3b0c:	0d 44 cd 38 	wl16	r9,0x2678
    3b10:	0d 60 01 23 	wh16	r9,0x3
    3b14:	10 40 01 29 	ld32	r9,r9
    3b18:	00 40 01 10 	mull	r8,r16
    3b1c:	20 70 03 e2 	movepc	rret,8
    3b20:	14 30 f1 3c 	br	10 <compare>,#al
    3b24:	00 10 00 41 	add	r2,1
    3b28:	0d 40 91 04 	wl16	r8,0x484
    3b2c:	0d 60 01 03 	wh16	r8,0x3
    3b30:	10 40 01 08 	ld32	r8,r8
    3b34:	0d 42 b2 00 	wl16	r16,0x1580
    3b38:	0d 60 02 03 	wh16	r16,0x3
    3b3c:	10 40 02 10 	ld32	r16,r16
    3b40:	0d 44 cd 3c 	wl16	r9,0x267c
    3b44:	0d 60 01 23 	wh16	r9,0x3
    3b48:	10 40 01 29 	ld32	r9,r9
    3b4c:	00 40 01 10 	mull	r8,r16
    3b50:	20 70 03 e2 	movepc	rret,8
    3b54:	14 30 f1 2f 	br	10 <compare>,#al
    3b58:	00 10 00 41 	add	r2,1
    3b5c:	0d 40 91 08 	wl16	r8,0x488
    3b60:	0d 60 01 03 	wh16	r8,0x3
    3b64:	10 40 01 08 	ld32	r8,r8
    3b68:	0d 42 b2 04 	wl16	r16,0x1584
    3b6c:	0d 60 02 03 	wh16	r16,0x3
    3b70:	10 40 02 10 	ld32	r16,r16
    3b74:	0d 44 d1 20 	wl16	r9,0x2680
    3b78:	0d 60 01 23 	wh16	r9,0x3
    3b7c:	10 40 01 29 	ld32	r9,r9
    3b80:	00 40 01 10 	mull	r8,r16
    3b84:	20 70 03 e2 	movepc	rret,8
    3b88:	14 30 f1 22 	br	10 <compare>,#al
    3b8c:	00 10 00 41 	add	r2,1
    3b90:	0d 40 91 0c 	wl16	r8,0x48c
    3b94:	0d 60 01 03 	wh16	r8,0x3
    3b98:	10 40 01 08 	ld32	r8,r8
    3b9c:	0d 42 b2 08 	wl16	r16,0x1588
    3ba0:	0d 60 02 03 	wh16	r16,0x3
    3ba4:	10 40 02 10 	ld32	r16,r16
    3ba8:	0d 44 d1 24 	wl16	r9,0x2684
    3bac:	0d 60 01 23 	wh16	r9,0x3
    3bb0:	10 40 01 29 	ld32	r9,r9
    3bb4:	00 40 01 10 	mull	r8,r16
    3bb8:	20 70 03 e2 	movepc	rret,8
    3bbc:	14 30 f1 15 	br	10 <compare>,#al
    3bc0:	00 10 00 41 	add	r2,1
    3bc4:	0d 40 91 10 	wl16	r8,0x490
    3bc8:	0d 60 01 03 	wh16	r8,0x3
    3bcc:	10 40 01 08 	ld32	r8,r8
    3bd0:	0d 42 b2 0c 	wl16	r16,0x158c
    3bd4:	0d 60 02 03 	wh16	r16,0x3
    3bd8:	10 40 02 10 	ld32	r16,r16
    3bdc:	0d 44 d1 28 	wl16	r9,0x2688
    3be0:	0d 60 01 23 	wh16	r9,0x3
    3be4:	10 40 01 29 	ld32	r9,r9
    3be8:	00 40 01 10 	mull	r8,r16
    3bec:	20 70 03 e2 	movepc	rret,8
    3bf0:	14 30 f1 08 	br	10 <compare>,#al
    3bf4:	00 10 00 41 	add	r2,1
    3bf8:	0d 40 91 14 	wl16	r8,0x494
    3bfc:	0d 60 01 03 	wh16	r8,0x3
    3c00:	10 40 01 08 	ld32	r8,r8
    3c04:	0d 42 b2 10 	wl16	r16,0x1590
    3c08:	0d 60 02 03 	wh16	r16,0x3
    3c0c:	10 40 02 10 	ld32	r16,r16
    3c10:	0d 44 d1 2c 	wl16	r9,0x268c
    3c14:	0d 60 01 23 	wh16	r9,0x3
    3c18:	10 40 01 29 	ld32	r9,r9
    3c1c:	00 40 01 10 	mull	r8,r16
    3c20:	20 70 03 e2 	movepc	rret,8
    3c24:	14 30 f0 fb 	br	10 <compare>,#al
    3c28:	00 10 00 41 	add	r2,1
    3c2c:	0d 40 91 18 	wl16	r8,0x498
    3c30:	0d 60 01 03 	wh16	r8,0x3
    3c34:	10 40 01 08 	ld32	r8,r8
    3c38:	0d 42 b2 14 	wl16	r16,0x1594
    3c3c:	0d 60 02 03 	wh16	r16,0x3
    3c40:	10 40 02 10 	ld32	r16,r16
    3c44:	0d 44 d1 30 	wl16	r9,0x2690
    3c48:	0d 60 01 23 	wh16	r9,0x3
    3c4c:	10 40 01 29 	ld32	r9,r9
    3c50:	00 40 01 10 	mull	r8,r16
    3c54:	20 70 03 e2 	movepc	rret,8
    3c58:	14 30 f0 ee 	br	10 <compare>,#al
    3c5c:	00 10 00 41 	add	r2,1
    3c60:	0d 40 91 1c 	wl16	r8,0x49c
    3c64:	0d 60 01 03 	wh16	r8,0x3
    3c68:	10 40 01 08 	ld32	r8,r8
    3c6c:	0d 42 b2 18 	wl16	r16,0x1598
    3c70:	0d 60 02 03 	wh16	r16,0x3
    3c74:	10 40 02 10 	ld32	r16,r16
    3c78:	0d 44 d1 34 	wl16	r9,0x2694
    3c7c:	0d 60 01 23 	wh16	r9,0x3
    3c80:	10 40 01 29 	ld32	r9,r9
    3c84:	00 40 01 10 	mull	r8,r16
    3c88:	20 70 03 e2 	movepc	rret,8
    3c8c:	14 30 f0 e1 	br	10 <compare>,#al
    3c90:	00 10 00 41 	add	r2,1
    3c94:	0d 40 95 00 	wl16	r8,0x4a0
    3c98:	0d 60 01 03 	wh16	r8,0x3
    3c9c:	10 40 01 08 	ld32	r8,r8
    3ca0:	0d 42 b2 1c 	wl16	r16,0x159c
    3ca4:	0d 60 02 03 	wh16	r16,0x3
    3ca8:	10 40 02 10 	ld32	r16,r16
    3cac:	0d 44 d1 38 	wl16	r9,0x2698
    3cb0:	0d 60 01 23 	wh16	r9,0x3
    3cb4:	10 40 01 29 	ld32	r9,r9
    3cb8:	00 40 01 10 	mull	r8,r16
    3cbc:	20 70 03 e2 	movepc	rret,8
    3cc0:	14 30 f0 d4 	br	10 <compare>,#al
    3cc4:	00 10 00 41 	add	r2,1
    3cc8:	0d 40 95 04 	wl16	r8,0x4a4
    3ccc:	0d 60 01 03 	wh16	r8,0x3
    3cd0:	10 40 01 08 	ld32	r8,r8
    3cd4:	0d 42 b6 00 	wl16	r16,0x15a0
    3cd8:	0d 60 02 03 	wh16	r16,0x3
    3cdc:	10 40 02 10 	ld32	r16,r16
    3ce0:	0d 44 d1 3c 	wl16	r9,0x269c
    3ce4:	0d 60 01 23 	wh16	r9,0x3
    3ce8:	10 40 01 29 	ld32	r9,r9
    3cec:	00 40 01 10 	mull	r8,r16
    3cf0:	20 70 03 e2 	movepc	rret,8
    3cf4:	14 30 f0 c7 	br	10 <compare>,#al
    3cf8:	00 10 00 41 	add	r2,1
    3cfc:	0d 40 95 08 	wl16	r8,0x4a8
    3d00:	0d 60 01 03 	wh16	r8,0x3
    3d04:	10 40 01 08 	ld32	r8,r8
    3d08:	0d 42 b6 04 	wl16	r16,0x15a4
    3d0c:	0d 60 02 03 	wh16	r16,0x3
    3d10:	10 40 02 10 	ld32	r16,r16
    3d14:	0d 44 d5 20 	wl16	r9,0x26a0
    3d18:	0d 60 01 23 	wh16	r9,0x3
    3d1c:	10 40 01 29 	ld32	r9,r9
    3d20:	00 40 01 10 	mull	r8,r16
    3d24:	20 70 03 e2 	movepc	rret,8
    3d28:	14 30 f0 ba 	br	10 <compare>,#al
    3d2c:	00 10 00 41 	add	r2,1
    3d30:	0d 40 95 0c 	wl16	r8,0x4ac
    3d34:	0d 60 01 03 	wh16	r8,0x3
    3d38:	10 40 01 08 	ld32	r8,r8
    3d3c:	0d 42 b6 08 	wl16	r16,0x15a8
    3d40:	0d 60 02 03 	wh16	r16,0x3
    3d44:	10 40 02 10 	ld32	r16,r16
    3d48:	0d 44 d5 24 	wl16	r9,0x26a4
    3d4c:	0d 60 01 23 	wh16	r9,0x3
    3d50:	10 40 01 29 	ld32	r9,r9
    3d54:	00 40 01 10 	mull	r8,r16
    3d58:	20 70 03 e2 	movepc	rret,8
    3d5c:	14 30 f0 ad 	br	10 <compare>,#al
    3d60:	00 10 00 41 	add	r2,1
    3d64:	0d 40 95 10 	wl16	r8,0x4b0
    3d68:	0d 60 01 03 	wh16	r8,0x3
    3d6c:	10 40 01 08 	ld32	r8,r8
    3d70:	0d 42 b6 0c 	wl16	r16,0x15ac
    3d74:	0d 60 02 03 	wh16	r16,0x3
    3d78:	10 40 02 10 	ld32	r16,r16
    3d7c:	0d 44 d5 28 	wl16	r9,0x26a8
    3d80:	0d 60 01 23 	wh16	r9,0x3
    3d84:	10 40 01 29 	ld32	r9,r9
    3d88:	00 40 01 10 	mull	r8,r16
    3d8c:	20 70 03 e2 	movepc	rret,8
    3d90:	14 30 f0 a0 	br	10 <compare>,#al
    3d94:	00 10 00 41 	add	r2,1
    3d98:	0d 40 95 14 	wl16	r8,0x4b4
    3d9c:	0d 60 01 03 	wh16	r8,0x3
    3da0:	10 40 01 08 	ld32	r8,r8
    3da4:	0d 42 b6 10 	wl16	r16,0x15b0
    3da8:	0d 60 02 03 	wh16	r16,0x3
    3dac:	10 40 02 10 	ld32	r16,r16
    3db0:	0d 44 d5 2c 	wl16	r9,0x26ac
    3db4:	0d 60 01 23 	wh16	r9,0x3
    3db8:	10 40 01 29 	ld32	r9,r9
    3dbc:	00 40 01 10 	mull	r8,r16
    3dc0:	20 70 03 e2 	movepc	rret,8
    3dc4:	14 30 f0 93 	br	10 <compare>,#al
    3dc8:	00 10 00 41 	add	r2,1
    3dcc:	0d 40 95 18 	wl16	r8,0x4b8
    3dd0:	0d 60 01 03 	wh16	r8,0x3
    3dd4:	10 40 01 08 	ld32	r8,r8
    3dd8:	0d 42 b6 14 	wl16	r16,0x15b4
    3ddc:	0d 60 02 03 	wh16	r16,0x3
    3de0:	10 40 02 10 	ld32	r16,r16
    3de4:	0d 44 d5 30 	wl16	r9,0x26b0
    3de8:	0d 60 01 23 	wh16	r9,0x3
    3dec:	10 40 01 29 	ld32	r9,r9
    3df0:	00 40 01 10 	mull	r8,r16
    3df4:	20 70 03 e2 	movepc	rret,8
    3df8:	14 30 f0 86 	br	10 <compare>,#al
    3dfc:	00 10 00 41 	add	r2,1
    3e00:	0d 40 95 1c 	wl16	r8,0x4bc
    3e04:	0d 60 01 03 	wh16	r8,0x3
    3e08:	10 40 01 08 	ld32	r8,r8
    3e0c:	0d 42 b6 18 	wl16	r16,0x15b8
    3e10:	0d 60 02 03 	wh16	r16,0x3
    3e14:	10 40 02 10 	ld32	r16,r16
    3e18:	0d 44 d5 34 	wl16	r9,0x26b4
    3e1c:	0d 60 01 23 	wh16	r9,0x3
    3e20:	10 40 01 29 	ld32	r9,r9
    3e24:	00 40 01 10 	mull	r8,r16
    3e28:	20 70 03 e2 	movepc	rret,8
    3e2c:	14 30 f0 79 	br	10 <compare>,#al
    3e30:	00 10 00 41 	add	r2,1
    3e34:	0d 40 99 00 	wl16	r8,0x4c0
    3e38:	0d 60 01 03 	wh16	r8,0x3
    3e3c:	10 40 01 08 	ld32	r8,r8
    3e40:	0d 42 b6 1c 	wl16	r16,0x15bc
    3e44:	0d 60 02 03 	wh16	r16,0x3
    3e48:	10 40 02 10 	ld32	r16,r16
    3e4c:	0d 44 d5 38 	wl16	r9,0x26b8
    3e50:	0d 60 01 23 	wh16	r9,0x3
    3e54:	10 40 01 29 	ld32	r9,r9
    3e58:	00 40 01 10 	mull	r8,r16
    3e5c:	20 70 03 e2 	movepc	rret,8
    3e60:	14 30 f0 6c 	br	10 <compare>,#al
    3e64:	00 10 00 41 	add	r2,1
    3e68:	0d 40 99 04 	wl16	r8,0x4c4
    3e6c:	0d 60 01 03 	wh16	r8,0x3
    3e70:	10 40 01 08 	ld32	r8,r8
    3e74:	0d 42 ba 00 	wl16	r16,0x15c0
    3e78:	0d 60 02 03 	wh16	r16,0x3
    3e7c:	10 40 02 10 	ld32	r16,r16
    3e80:	0d 44 d5 3c 	wl16	r9,0x26bc
    3e84:	0d 60 01 23 	wh16	r9,0x3
    3e88:	10 40 01 29 	ld32	r9,r9
    3e8c:	00 40 01 10 	mull	r8,r16
    3e90:	20 70 03 e2 	movepc	rret,8
    3e94:	14 30 f0 5f 	br	10 <compare>,#al
    3e98:	00 10 00 41 	add	r2,1
    3e9c:	0d 40 99 08 	wl16	r8,0x4c8
    3ea0:	0d 60 01 03 	wh16	r8,0x3
    3ea4:	10 40 01 08 	ld32	r8,r8
    3ea8:	0d 42 ba 04 	wl16	r16,0x15c4
    3eac:	0d 60 02 03 	wh16	r16,0x3
    3eb0:	10 40 02 10 	ld32	r16,r16
    3eb4:	0d 44 d9 20 	wl16	r9,0x26c0
    3eb8:	0d 60 01 23 	wh16	r9,0x3
    3ebc:	10 40 01 29 	ld32	r9,r9
    3ec0:	00 40 01 10 	mull	r8,r16
    3ec4:	20 70 03 e2 	movepc	rret,8
    3ec8:	14 30 f0 52 	br	10 <compare>,#al
    3ecc:	00 10 00 41 	add	r2,1
    3ed0:	0d 40 99 0c 	wl16	r8,0x4cc
    3ed4:	0d 60 01 03 	wh16	r8,0x3
    3ed8:	10 40 01 08 	ld32	r8,r8
    3edc:	0d 42 ba 08 	wl16	r16,0x15c8
    3ee0:	0d 60 02 03 	wh16	r16,0x3
    3ee4:	10 40 02 10 	ld32	r16,r16
    3ee8:	0d 44 d9 24 	wl16	r9,0x26c4
    3eec:	0d 60 01 23 	wh16	r9,0x3
    3ef0:	10 40 01 29 	ld32	r9,r9
    3ef4:	00 40 01 10 	mull	r8,r16
    3ef8:	20 70 03 e2 	movepc	rret,8
    3efc:	14 30 f0 45 	br	10 <compare>,#al
    3f00:	00 10 00 41 	add	r2,1
    3f04:	0d 40 99 10 	wl16	r8,0x4d0
    3f08:	0d 60 01 03 	wh16	r8,0x3
    3f0c:	10 40 01 08 	ld32	r8,r8
    3f10:	0d 42 ba 0c 	wl16	r16,0x15cc
    3f14:	0d 60 02 03 	wh16	r16,0x3
    3f18:	10 40 02 10 	ld32	r16,r16
    3f1c:	0d 44 d9 28 	wl16	r9,0x26c8
    3f20:	0d 60 01 23 	wh16	r9,0x3
    3f24:	10 40 01 29 	ld32	r9,r9
    3f28:	00 40 01 10 	mull	r8,r16
    3f2c:	20 70 03 e2 	movepc	rret,8
    3f30:	14 30 f0 38 	br	10 <compare>,#al
    3f34:	00 10 00 41 	add	r2,1
    3f38:	0d 40 99 14 	wl16	r8,0x4d4
    3f3c:	0d 60 01 03 	wh16	r8,0x3
    3f40:	10 40 01 08 	ld32	r8,r8
    3f44:	0d 42 ba 10 	wl16	r16,0x15d0
    3f48:	0d 60 02 03 	wh16	r16,0x3
    3f4c:	10 40 02 10 	ld32	r16,r16
    3f50:	0d 44 d9 2c 	wl16	r9,0x26cc
    3f54:	0d 60 01 23 	wh16	r9,0x3
    3f58:	10 40 01 29 	ld32	r9,r9
    3f5c:	00 40 01 10 	mull	r8,r16
    3f60:	20 70 03 e2 	movepc	rret,8
    3f64:	14 30 f0 2b 	br	10 <compare>,#al
    3f68:	00 10 00 41 	add	r2,1
    3f6c:	0d 40 99 18 	wl16	r8,0x4d8
    3f70:	0d 60 01 03 	wh16	r8,0x3
    3f74:	10 40 01 08 	ld32	r8,r8
    3f78:	0d 42 ba 14 	wl16	r16,0x15d4
    3f7c:	0d 60 02 03 	wh16	r16,0x3
    3f80:	10 40 02 10 	ld32	r16,r16
    3f84:	0d 44 d9 30 	wl16	r9,0x26d0
    3f88:	0d 60 01 23 	wh16	r9,0x3
    3f8c:	10 40 01 29 	ld32	r9,r9
    3f90:	00 40 01 10 	mull	r8,r16
    3f94:	20 70 03 e2 	movepc	rret,8
    3f98:	14 30 f0 1e 	br	10 <compare>,#al
    3f9c:	00 10 00 41 	add	r2,1
    3fa0:	0d 40 99 1c 	wl16	r8,0x4dc
    3fa4:	0d 60 01 03 	wh16	r8,0x3
    3fa8:	10 40 01 08 	ld32	r8,r8
    3fac:	0d 42 ba 18 	wl16	r16,0x15d8
    3fb0:	0d 60 02 03 	wh16	r16,0x3
    3fb4:	10 40 02 10 	ld32	r16,r16
    3fb8:	0d 44 d9 34 	wl16	r9,0x26d4
    3fbc:	0d 60 01 23 	wh16	r9,0x3
    3fc0:	10 40 01 29 	ld32	r9,r9
    3fc4:	00 40 01 10 	mull	r8,r16
    3fc8:	20 70 03 e2 	movepc	rret,8
    3fcc:	14 30 f0 11 	br	10 <compare>,#al
    3fd0:	00 10 00 41 	add	r2,1
    3fd4:	0d 40 9d 00 	wl16	r8,0x4e0
    3fd8:	0d 60 01 03 	wh16	r8,0x3
    3fdc:	10 40 01 08 	ld32	r8,r8
    3fe0:	0d 42 ba 1c 	wl16	r16,0x15dc
    3fe4:	0d 60 02 03 	wh16	r16,0x3
    3fe8:	10 40 02 10 	ld32	r16,r16
    3fec:	0d 44 d9 38 	wl16	r9,0x26d8
    3ff0:	0d 60 01 23 	wh16	r9,0x3
    3ff4:	10 40 01 29 	ld32	r9,r9
    3ff8:	00 40 01 10 	mull	r8,r16
    3ffc:	20 70 03 e2 	movepc	rret,8
    4000:	14 30 f0 04 	br	10 <compare>,#al
    4004:	00 10 00 41 	add	r2,1
    4008:	0d 40 9d 04 	wl16	r8,0x4e4
    400c:	0d 60 01 03 	wh16	r8,0x3
    4010:	10 40 01 08 	ld32	r8,r8
    4014:	0d 42 be 00 	wl16	r16,0x15e0
    4018:	0d 60 02 03 	wh16	r16,0x3
    401c:	10 40 02 10 	ld32	r16,r16
    4020:	0d 44 d9 3c 	wl16	r9,0x26dc
    4024:	0d 60 01 23 	wh16	r9,0x3
    4028:	10 40 01 29 	ld32	r9,r9
    402c:	00 40 01 10 	mull	r8,r16
    4030:	20 70 03 e2 	movepc	rret,8
    4034:	14 30 ef f7 	br	10 <compare>,#al
    4038:	00 10 00 41 	add	r2,1
    403c:	0d 40 9d 08 	wl16	r8,0x4e8
    4040:	0d 60 01 03 	wh16	r8,0x3
    4044:	10 40 01 08 	ld32	r8,r8
    4048:	0d 42 be 04 	wl16	r16,0x15e4
    404c:	0d 60 02 03 	wh16	r16,0x3
    4050:	10 40 02 10 	ld32	r16,r16
    4054:	0d 44 dd 20 	wl16	r9,0x26e0
    4058:	0d 60 01 23 	wh16	r9,0x3
    405c:	10 40 01 29 	ld32	r9,r9
    4060:	00 40 01 10 	mull	r8,r16
    4064:	20 70 03 e2 	movepc	rret,8
    4068:	14 30 ef ea 	br	10 <compare>,#al
    406c:	00 10 00 41 	add	r2,1
    4070:	0d 40 9d 0c 	wl16	r8,0x4ec
    4074:	0d 60 01 03 	wh16	r8,0x3
    4078:	10 40 01 08 	ld32	r8,r8
    407c:	0d 42 be 08 	wl16	r16,0x15e8
    4080:	0d 60 02 03 	wh16	r16,0x3
    4084:	10 40 02 10 	ld32	r16,r16
    4088:	0d 44 dd 24 	wl16	r9,0x26e4
    408c:	0d 60 01 23 	wh16	r9,0x3
    4090:	10 40 01 29 	ld32	r9,r9
    4094:	00 40 01 10 	mull	r8,r16
    4098:	20 70 03 e2 	movepc	rret,8
    409c:	14 30 ef dd 	br	10 <compare>,#al
    40a0:	00 10 00 41 	add	r2,1
    40a4:	0d 40 9d 10 	wl16	r8,0x4f0
    40a8:	0d 60 01 03 	wh16	r8,0x3
    40ac:	10 40 01 08 	ld32	r8,r8
    40b0:	0d 42 be 0c 	wl16	r16,0x15ec
    40b4:	0d 60 02 03 	wh16	r16,0x3
    40b8:	10 40 02 10 	ld32	r16,r16
    40bc:	0d 44 dd 28 	wl16	r9,0x26e8
    40c0:	0d 60 01 23 	wh16	r9,0x3
    40c4:	10 40 01 29 	ld32	r9,r9
    40c8:	00 40 01 10 	mull	r8,r16
    40cc:	20 70 03 e2 	movepc	rret,8
    40d0:	14 30 ef d0 	br	10 <compare>,#al
    40d4:	00 10 00 41 	add	r2,1
    40d8:	0d 40 9d 14 	wl16	r8,0x4f4
    40dc:	0d 60 01 03 	wh16	r8,0x3
    40e0:	10 40 01 08 	ld32	r8,r8
    40e4:	0d 42 be 10 	wl16	r16,0x15f0
    40e8:	0d 60 02 03 	wh16	r16,0x3
    40ec:	10 40 02 10 	ld32	r16,r16
    40f0:	0d 44 dd 2c 	wl16	r9,0x26ec
    40f4:	0d 60 01 23 	wh16	r9,0x3
    40f8:	10 40 01 29 	ld32	r9,r9
    40fc:	00 40 01 10 	mull	r8,r16
    4100:	20 70 03 e2 	movepc	rret,8
    4104:	14 30 ef c3 	br	10 <compare>,#al
    4108:	00 10 00 41 	add	r2,1
    410c:	0d 40 9d 18 	wl16	r8,0x4f8
    4110:	0d 60 01 03 	wh16	r8,0x3
    4114:	10 40 01 08 	ld32	r8,r8
    4118:	0d 42 be 14 	wl16	r16,0x15f4
    411c:	0d 60 02 03 	wh16	r16,0x3
    4120:	10 40 02 10 	ld32	r16,r16
    4124:	0d 44 dd 30 	wl16	r9,0x26f0
    4128:	0d 60 01 23 	wh16	r9,0x3
    412c:	10 40 01 29 	ld32	r9,r9
    4130:	00 40 01 10 	mull	r8,r16
    4134:	20 70 03 e2 	movepc	rret,8
    4138:	14 30 ef b6 	br	10 <compare>,#al
    413c:	00 10 00 41 	add	r2,1
    4140:	0d 40 9d 1c 	wl16	r8,0x4fc
    4144:	0d 60 01 03 	wh16	r8,0x3
    4148:	10 40 01 08 	ld32	r8,r8
    414c:	0d 42 be 18 	wl16	r16,0x15f8
    4150:	0d 60 02 03 	wh16	r16,0x3
    4154:	10 40 02 10 	ld32	r16,r16
    4158:	0d 44 dd 34 	wl16	r9,0x26f4
    415c:	0d 60 01 23 	wh16	r9,0x3
    4160:	10 40 01 29 	ld32	r9,r9
    4164:	00 40 01 10 	mull	r8,r16
    4168:	20 70 03 e2 	movepc	rret,8
    416c:	14 30 ef a9 	br	10 <compare>,#al
    4170:	00 10 00 41 	add	r2,1
    4174:	0d 40 a1 00 	wl16	r8,0x500
    4178:	0d 60 01 03 	wh16	r8,0x3
    417c:	10 40 01 08 	ld32	r8,r8
    4180:	0d 42 be 1c 	wl16	r16,0x15fc
    4184:	0d 60 02 03 	wh16	r16,0x3
    4188:	10 40 02 10 	ld32	r16,r16
    418c:	0d 44 dd 38 	wl16	r9,0x26f8
    4190:	0d 60 01 23 	wh16	r9,0x3
    4194:	10 40 01 29 	ld32	r9,r9
    4198:	00 40 01 10 	mull	r8,r16
    419c:	20 70 03 e2 	movepc	rret,8
    41a0:	14 30 ef 9c 	br	10 <compare>,#al
    41a4:	00 10 00 41 	add	r2,1
    41a8:	0d 40 a1 04 	wl16	r8,0x504
    41ac:	0d 60 01 03 	wh16	r8,0x3
    41b0:	10 40 01 08 	ld32	r8,r8
    41b4:	0d 42 c2 00 	wl16	r16,0x1600
    41b8:	0d 60 02 03 	wh16	r16,0x3
    41bc:	10 40 02 10 	ld32	r16,r16
    41c0:	0d 44 dd 3c 	wl16	r9,0x26fc
    41c4:	0d 60 01 23 	wh16	r9,0x3
    41c8:	10 40 01 29 	ld32	r9,r9
    41cc:	00 40 01 10 	mull	r8,r16
    41d0:	20 70 03 e2 	movepc	rret,8
    41d4:	14 30 ef 8f 	br	10 <compare>,#al
    41d8:	00 10 00 41 	add	r2,1
    41dc:	0d 40 a1 08 	wl16	r8,0x508
    41e0:	0d 60 01 03 	wh16	r8,0x3
    41e4:	10 40 01 08 	ld32	r8,r8
    41e8:	0d 42 c2 04 	wl16	r16,0x1604
    41ec:	0d 60 02 03 	wh16	r16,0x3
    41f0:	10 40 02 10 	ld32	r16,r16
    41f4:	0d 44 e1 20 	wl16	r9,0x2700
    41f8:	0d 60 01 23 	wh16	r9,0x3
    41fc:	10 40 01 29 	ld32	r9,r9
    4200:	00 40 01 10 	mull	r8,r16
    4204:	20 70 03 e2 	movepc	rret,8
    4208:	14 30 ef 82 	br	10 <compare>,#al
    420c:	00 10 00 41 	add	r2,1
    4210:	0d 40 a1 0c 	wl16	r8,0x50c
    4214:	0d 60 01 03 	wh16	r8,0x3
    4218:	10 40 01 08 	ld32	r8,r8
    421c:	0d 42 c2 08 	wl16	r16,0x1608
    4220:	0d 60 02 03 	wh16	r16,0x3
    4224:	10 40 02 10 	ld32	r16,r16
    4228:	0d 44 e1 24 	wl16	r9,0x2704
    422c:	0d 60 01 23 	wh16	r9,0x3
    4230:	10 40 01 29 	ld32	r9,r9
    4234:	00 40 01 10 	mull	r8,r16
    4238:	20 70 03 e2 	movepc	rret,8
    423c:	14 30 ef 75 	br	10 <compare>,#al
    4240:	00 10 00 41 	add	r2,1
    4244:	0d 40 a1 10 	wl16	r8,0x510
    4248:	0d 60 01 03 	wh16	r8,0x3
    424c:	10 40 01 08 	ld32	r8,r8
    4250:	0d 42 c2 0c 	wl16	r16,0x160c
    4254:	0d 60 02 03 	wh16	r16,0x3
    4258:	10 40 02 10 	ld32	r16,r16
    425c:	0d 44 e1 28 	wl16	r9,0x2708
    4260:	0d 60 01 23 	wh16	r9,0x3
    4264:	10 40 01 29 	ld32	r9,r9
    4268:	00 40 01 10 	mull	r8,r16
    426c:	20 70 03 e2 	movepc	rret,8
    4270:	14 30 ef 68 	br	10 <compare>,#al
    4274:	00 10 00 41 	add	r2,1
    4278:	0d 40 a1 14 	wl16	r8,0x514
    427c:	0d 60 01 03 	wh16	r8,0x3
    4280:	10 40 01 08 	ld32	r8,r8
    4284:	0d 42 c2 10 	wl16	r16,0x1610
    4288:	0d 60 02 03 	wh16	r16,0x3
    428c:	10 40 02 10 	ld32	r16,r16
    4290:	0d 44 e1 2c 	wl16	r9,0x270c
    4294:	0d 60 01 23 	wh16	r9,0x3
    4298:	10 40 01 29 	ld32	r9,r9
    429c:	00 40 01 10 	mull	r8,r16
    42a0:	20 70 03 e2 	movepc	rret,8
    42a4:	14 30 ef 5b 	br	10 <compare>,#al
    42a8:	00 10 00 41 	add	r2,1
    42ac:	0d 40 a1 18 	wl16	r8,0x518
    42b0:	0d 60 01 03 	wh16	r8,0x3
    42b4:	10 40 01 08 	ld32	r8,r8
    42b8:	0d 42 c2 14 	wl16	r16,0x1614
    42bc:	0d 60 02 03 	wh16	r16,0x3
    42c0:	10 40 02 10 	ld32	r16,r16
    42c4:	0d 44 e1 30 	wl16	r9,0x2710
    42c8:	0d 60 01 23 	wh16	r9,0x3
    42cc:	10 40 01 29 	ld32	r9,r9
    42d0:	00 40 01 10 	mull	r8,r16
    42d4:	20 70 03 e2 	movepc	rret,8
    42d8:	14 30 ef 4e 	br	10 <compare>,#al
    42dc:	00 10 00 41 	add	r2,1
    42e0:	0d 40 a1 1c 	wl16	r8,0x51c
    42e4:	0d 60 01 03 	wh16	r8,0x3
    42e8:	10 40 01 08 	ld32	r8,r8
    42ec:	0d 42 c2 18 	wl16	r16,0x1618
    42f0:	0d 60 02 03 	wh16	r16,0x3
    42f4:	10 40 02 10 	ld32	r16,r16
    42f8:	0d 44 e1 34 	wl16	r9,0x2714
    42fc:	0d 60 01 23 	wh16	r9,0x3
    4300:	10 40 01 29 	ld32	r9,r9
    4304:	00 40 01 10 	mull	r8,r16
    4308:	20 70 03 e2 	movepc	rret,8
    430c:	14 30 ef 41 	br	10 <compare>,#al
    4310:	00 10 00 41 	add	r2,1
    4314:	0d 40 a5 00 	wl16	r8,0x520
    4318:	0d 60 01 03 	wh16	r8,0x3
    431c:	10 40 01 08 	ld32	r8,r8
    4320:	0d 42 c2 1c 	wl16	r16,0x161c
    4324:	0d 60 02 03 	wh16	r16,0x3
    4328:	10 40 02 10 	ld32	r16,r16
    432c:	0d 44 e1 38 	wl16	r9,0x2718
    4330:	0d 60 01 23 	wh16	r9,0x3
    4334:	10 40 01 29 	ld32	r9,r9
    4338:	00 40 01 10 	mull	r8,r16
    433c:	20 70 03 e2 	movepc	rret,8
    4340:	14 30 ef 34 	br	10 <compare>,#al
    4344:	00 10 00 41 	add	r2,1
    4348:	0d 40 a5 04 	wl16	r8,0x524
    434c:	0d 60 01 03 	wh16	r8,0x3
    4350:	10 40 01 08 	ld32	r8,r8
    4354:	0d 42 c6 00 	wl16	r16,0x1620
    4358:	0d 60 02 03 	wh16	r16,0x3
    435c:	10 40 02 10 	ld32	r16,r16
    4360:	0d 44 e1 3c 	wl16	r9,0x271c
    4364:	0d 60 01 23 	wh16	r9,0x3
    4368:	10 40 01 29 	ld32	r9,r9
    436c:	00 40 01 10 	mull	r8,r16
    4370:	20 70 03 e2 	movepc	rret,8
    4374:	14 30 ef 27 	br	10 <compare>,#al
    4378:	00 10 00 41 	add	r2,1
    437c:	0d 40 a5 08 	wl16	r8,0x528
    4380:	0d 60 01 03 	wh16	r8,0x3
    4384:	10 40 01 08 	ld32	r8,r8
    4388:	0d 42 c6 04 	wl16	r16,0x1624
    438c:	0d 60 02 03 	wh16	r16,0x3
    4390:	10 40 02 10 	ld32	r16,r16
    4394:	0d 44 e5 20 	wl16	r9,0x2720
    4398:	0d 60 01 23 	wh16	r9,0x3
    439c:	10 40 01 29 	ld32	r9,r9
    43a0:	00 40 01 10 	mull	r8,r16
    43a4:	20 70 03 e2 	movepc	rret,8
    43a8:	14 30 ef 1a 	br	10 <compare>,#al
    43ac:	00 10 00 41 	add	r2,1
    43b0:	0d 40 a5 0c 	wl16	r8,0x52c
    43b4:	0d 60 01 03 	wh16	r8,0x3
    43b8:	10 40 01 08 	ld32	r8,r8
    43bc:	0d 42 c6 08 	wl16	r16,0x1628
    43c0:	0d 60 02 03 	wh16	r16,0x3
    43c4:	10 40 02 10 	ld32	r16,r16
    43c8:	0d 44 e5 24 	wl16	r9,0x2724
    43cc:	0d 60 01 23 	wh16	r9,0x3
    43d0:	10 40 01 29 	ld32	r9,r9
    43d4:	00 40 01 10 	mull	r8,r16
    43d8:	20 70 03 e2 	movepc	rret,8
    43dc:	14 30 ef 0d 	br	10 <compare>,#al
    43e0:	00 10 00 41 	add	r2,1
    43e4:	0d 40 a5 10 	wl16	r8,0x530
    43e8:	0d 60 01 03 	wh16	r8,0x3
    43ec:	10 40 01 08 	ld32	r8,r8
    43f0:	0d 42 c6 0c 	wl16	r16,0x162c
    43f4:	0d 60 02 03 	wh16	r16,0x3
    43f8:	10 40 02 10 	ld32	r16,r16
    43fc:	0d 44 e5 28 	wl16	r9,0x2728
    4400:	0d 60 01 23 	wh16	r9,0x3
    4404:	10 40 01 29 	ld32	r9,r9
    4408:	00 40 01 10 	mull	r8,r16
    440c:	20 70 03 e2 	movepc	rret,8
    4410:	14 30 ef 00 	br	10 <compare>,#al
    4414:	00 10 00 41 	add	r2,1
    4418:	0d 40 a5 14 	wl16	r8,0x534
    441c:	0d 60 01 03 	wh16	r8,0x3
    4420:	10 40 01 08 	ld32	r8,r8
    4424:	0d 42 c6 10 	wl16	r16,0x1630
    4428:	0d 60 02 03 	wh16	r16,0x3
    442c:	10 40 02 10 	ld32	r16,r16
    4430:	0d 44 e5 2c 	wl16	r9,0x272c
    4434:	0d 60 01 23 	wh16	r9,0x3
    4438:	10 40 01 29 	ld32	r9,r9
    443c:	00 40 01 10 	mull	r8,r16
    4440:	20 70 03 e2 	movepc	rret,8
    4444:	14 30 ee f3 	br	10 <compare>,#al
    4448:	00 10 00 41 	add	r2,1
    444c:	0d 40 a5 18 	wl16	r8,0x538
    4450:	0d 60 01 03 	wh16	r8,0x3
    4454:	10 40 01 08 	ld32	r8,r8
    4458:	0d 42 c6 14 	wl16	r16,0x1634
    445c:	0d 60 02 03 	wh16	r16,0x3
    4460:	10 40 02 10 	ld32	r16,r16
    4464:	0d 44 e5 30 	wl16	r9,0x2730
    4468:	0d 60 01 23 	wh16	r9,0x3
    446c:	10 40 01 29 	ld32	r9,r9
    4470:	00 40 01 10 	mull	r8,r16
    4474:	20 70 03 e2 	movepc	rret,8
    4478:	14 30 ee e6 	br	10 <compare>,#al
    447c:	00 10 00 41 	add	r2,1
    4480:	0d 40 a5 1c 	wl16	r8,0x53c
    4484:	0d 60 01 03 	wh16	r8,0x3
    4488:	10 40 01 08 	ld32	r8,r8
    448c:	0d 42 c6 18 	wl16	r16,0x1638
    4490:	0d 60 02 03 	wh16	r16,0x3
    4494:	10 40 02 10 	ld32	r16,r16
    4498:	0d 44 e5 34 	wl16	r9,0x2734
    449c:	0d 60 01 23 	wh16	r9,0x3
    44a0:	10 40 01 29 	ld32	r9,r9
    44a4:	00 40 01 10 	mull	r8,r16
    44a8:	20 70 03 e2 	movepc	rret,8
    44ac:	14 30 ee d9 	br	10 <compare>,#al
    44b0:	00 10 00 41 	add	r2,1
    44b4:	0d 40 a9 00 	wl16	r8,0x540
    44b8:	0d 60 01 03 	wh16	r8,0x3
    44bc:	10 40 01 08 	ld32	r8,r8
    44c0:	0d 42 c6 1c 	wl16	r16,0x163c
    44c4:	0d 60 02 03 	wh16	r16,0x3
    44c8:	10 40 02 10 	ld32	r16,r16
    44cc:	0d 44 e5 38 	wl16	r9,0x2738
    44d0:	0d 60 01 23 	wh16	r9,0x3
    44d4:	10 40 01 29 	ld32	r9,r9
    44d8:	00 40 01 10 	mull	r8,r16
    44dc:	20 70 03 e2 	movepc	rret,8
    44e0:	14 30 ee cc 	br	10 <compare>,#al
    44e4:	00 10 00 41 	add	r2,1
    44e8:	0d 40 a9 04 	wl16	r8,0x544
    44ec:	0d 60 01 03 	wh16	r8,0x3
    44f0:	10 40 01 08 	ld32	r8,r8
    44f4:	0d 42 ca 00 	wl16	r16,0x1640
    44f8:	0d 60 02 03 	wh16	r16,0x3
    44fc:	10 40 02 10 	ld32	r16,r16
    4500:	0d 44 e5 3c 	wl16	r9,0x273c
    4504:	0d 60 01 23 	wh16	r9,0x3
    4508:	10 40 01 29 	ld32	r9,r9
    450c:	00 40 01 10 	mull	r8,r16
    4510:	20 70 03 e2 	movepc	rret,8
    4514:	14 30 ee bf 	br	10 <compare>,#al
    4518:	00 10 00 41 	add	r2,1
    451c:	0d 40 a9 08 	wl16	r8,0x548
    4520:	0d 60 01 03 	wh16	r8,0x3
    4524:	10 40 01 08 	ld32	r8,r8
    4528:	0d 42 ca 04 	wl16	r16,0x1644
    452c:	0d 60 02 03 	wh16	r16,0x3
    4530:	10 40 02 10 	ld32	r16,r16
    4534:	0d 44 e9 20 	wl16	r9,0x2740
    4538:	0d 60 01 23 	wh16	r9,0x3
    453c:	10 40 01 29 	ld32	r9,r9
    4540:	00 40 01 10 	mull	r8,r16
    4544:	20 70 03 e2 	movepc	rret,8
    4548:	14 30 ee b2 	br	10 <compare>,#al
    454c:	00 10 00 41 	add	r2,1
    4550:	0d 40 a9 0c 	wl16	r8,0x54c
    4554:	0d 60 01 03 	wh16	r8,0x3
    4558:	10 40 01 08 	ld32	r8,r8
    455c:	0d 42 ca 08 	wl16	r16,0x1648
    4560:	0d 60 02 03 	wh16	r16,0x3
    4564:	10 40 02 10 	ld32	r16,r16
    4568:	0d 44 e9 24 	wl16	r9,0x2744
    456c:	0d 60 01 23 	wh16	r9,0x3
    4570:	10 40 01 29 	ld32	r9,r9
    4574:	00 40 01 10 	mull	r8,r16
    4578:	20 70 03 e2 	movepc	rret,8
    457c:	14 30 ee a5 	br	10 <compare>,#al
    4580:	00 10 00 41 	add	r2,1
    4584:	0d 40 a9 10 	wl16	r8,0x550
    4588:	0d 60 01 03 	wh16	r8,0x3
    458c:	10 40 01 08 	ld32	r8,r8
    4590:	0d 42 ca 0c 	wl16	r16,0x164c
    4594:	0d 60 02 03 	wh16	r16,0x3
    4598:	10 40 02 10 	ld32	r16,r16
    459c:	0d 44 e9 28 	wl16	r9,0x2748
    45a0:	0d 60 01 23 	wh16	r9,0x3
    45a4:	10 40 01 29 	ld32	r9,r9
    45a8:	00 40 01 10 	mull	r8,r16
    45ac:	20 70 03 e2 	movepc	rret,8
    45b0:	14 30 ee 98 	br	10 <compare>,#al
    45b4:	00 10 00 41 	add	r2,1
    45b8:	0d 40 a9 14 	wl16	r8,0x554
    45bc:	0d 60 01 03 	wh16	r8,0x3
    45c0:	10 40 01 08 	ld32	r8,r8
    45c4:	0d 42 ca 10 	wl16	r16,0x1650
    45c8:	0d 60 02 03 	wh16	r16,0x3
    45cc:	10 40 02 10 	ld32	r16,r16
    45d0:	0d 44 e9 2c 	wl16	r9,0x274c
    45d4:	0d 60 01 23 	wh16	r9,0x3
    45d8:	10 40 01 29 	ld32	r9,r9
    45dc:	00 40 01 10 	mull	r8,r16
    45e0:	20 70 03 e2 	movepc	rret,8
    45e4:	14 30 ee 8b 	br	10 <compare>,#al
    45e8:	00 10 00 41 	add	r2,1
    45ec:	0d 40 a9 18 	wl16	r8,0x558
    45f0:	0d 60 01 03 	wh16	r8,0x3
    45f4:	10 40 01 08 	ld32	r8,r8
    45f8:	0d 42 ca 14 	wl16	r16,0x1654
    45fc:	0d 60 02 03 	wh16	r16,0x3
    4600:	10 40 02 10 	ld32	r16,r16
    4604:	0d 44 e9 30 	wl16	r9,0x2750
    4608:	0d 60 01 23 	wh16	r9,0x3
    460c:	10 40 01 29 	ld32	r9,r9
    4610:	00 40 01 10 	mull	r8,r16
    4614:	20 70 03 e2 	movepc	rret,8
    4618:	14 30 ee 7e 	br	10 <compare>,#al
    461c:	00 10 00 41 	add	r2,1
    4620:	0d 40 a9 1c 	wl16	r8,0x55c
    4624:	0d 60 01 03 	wh16	r8,0x3
    4628:	10 40 01 08 	ld32	r8,r8
    462c:	0d 42 ca 18 	wl16	r16,0x1658
    4630:	0d 60 02 03 	wh16	r16,0x3
    4634:	10 40 02 10 	ld32	r16,r16
    4638:	0d 44 e9 34 	wl16	r9,0x2754
    463c:	0d 60 01 23 	wh16	r9,0x3
    4640:	10 40 01 29 	ld32	r9,r9
    4644:	00 40 01 10 	mull	r8,r16
    4648:	20 70 03 e2 	movepc	rret,8
    464c:	14 30 ee 71 	br	10 <compare>,#al
    4650:	00 10 00 41 	add	r2,1
    4654:	0d 40 ad 00 	wl16	r8,0x560
    4658:	0d 60 01 03 	wh16	r8,0x3
    465c:	10 40 01 08 	ld32	r8,r8
    4660:	0d 42 ca 1c 	wl16	r16,0x165c
    4664:	0d 60 02 03 	wh16	r16,0x3
    4668:	10 40 02 10 	ld32	r16,r16
    466c:	0d 44 e9 38 	wl16	r9,0x2758
    4670:	0d 60 01 23 	wh16	r9,0x3
    4674:	10 40 01 29 	ld32	r9,r9
    4678:	00 40 01 10 	mull	r8,r16
    467c:	20 70 03 e2 	movepc	rret,8
    4680:	14 30 ee 64 	br	10 <compare>,#al
    4684:	00 10 00 41 	add	r2,1
    4688:	0d 40 ad 04 	wl16	r8,0x564
    468c:	0d 60 01 03 	wh16	r8,0x3
    4690:	10 40 01 08 	ld32	r8,r8
    4694:	0d 42 ce 00 	wl16	r16,0x1660
    4698:	0d 60 02 03 	wh16	r16,0x3
    469c:	10 40 02 10 	ld32	r16,r16
    46a0:	0d 44 e9 3c 	wl16	r9,0x275c
    46a4:	0d 60 01 23 	wh16	r9,0x3
    46a8:	10 40 01 29 	ld32	r9,r9
    46ac:	00 40 01 10 	mull	r8,r16
    46b0:	20 70 03 e2 	movepc	rret,8
    46b4:	14 30 ee 57 	br	10 <compare>,#al
    46b8:	00 10 00 41 	add	r2,1
    46bc:	0d 40 ad 08 	wl16	r8,0x568
    46c0:	0d 60 01 03 	wh16	r8,0x3
    46c4:	10 40 01 08 	ld32	r8,r8
    46c8:	0d 42 ce 04 	wl16	r16,0x1664
    46cc:	0d 60 02 03 	wh16	r16,0x3
    46d0:	10 40 02 10 	ld32	r16,r16
    46d4:	0d 44 ed 20 	wl16	r9,0x2760
    46d8:	0d 60 01 23 	wh16	r9,0x3
    46dc:	10 40 01 29 	ld32	r9,r9
    46e0:	00 40 01 10 	mull	r8,r16
    46e4:	20 70 03 e2 	movepc	rret,8
    46e8:	14 30 ee 4a 	br	10 <compare>,#al
    46ec:	00 10 00 41 	add	r2,1
    46f0:	0d 40 ad 0c 	wl16	r8,0x56c
    46f4:	0d 60 01 03 	wh16	r8,0x3
    46f8:	10 40 01 08 	ld32	r8,r8
    46fc:	0d 42 ce 08 	wl16	r16,0x1668
    4700:	0d 60 02 03 	wh16	r16,0x3
    4704:	10 40 02 10 	ld32	r16,r16
    4708:	0d 44 ed 24 	wl16	r9,0x2764
    470c:	0d 60 01 23 	wh16	r9,0x3
    4710:	10 40 01 29 	ld32	r9,r9
    4714:	00 40 01 10 	mull	r8,r16
    4718:	20 70 03 e2 	movepc	rret,8
    471c:	14 30 ee 3d 	br	10 <compare>,#al
    4720:	00 10 00 41 	add	r2,1
    4724:	0d 40 ad 10 	wl16	r8,0x570
    4728:	0d 60 01 03 	wh16	r8,0x3
    472c:	10 40 01 08 	ld32	r8,r8
    4730:	0d 42 ce 0c 	wl16	r16,0x166c
    4734:	0d 60 02 03 	wh16	r16,0x3
    4738:	10 40 02 10 	ld32	r16,r16
    473c:	0d 44 ed 28 	wl16	r9,0x2768
    4740:	0d 60 01 23 	wh16	r9,0x3
    4744:	10 40 01 29 	ld32	r9,r9
    4748:	00 40 01 10 	mull	r8,r16
    474c:	20 70 03 e2 	movepc	rret,8
    4750:	14 30 ee 30 	br	10 <compare>,#al
    4754:	00 10 00 41 	add	r2,1
    4758:	0d 40 ad 14 	wl16	r8,0x574
    475c:	0d 60 01 03 	wh16	r8,0x3
    4760:	10 40 01 08 	ld32	r8,r8
    4764:	0d 42 ce 10 	wl16	r16,0x1670
    4768:	0d 60 02 03 	wh16	r16,0x3
    476c:	10 40 02 10 	ld32	r16,r16
    4770:	0d 44 ed 2c 	wl16	r9,0x276c
    4774:	0d 60 01 23 	wh16	r9,0x3
    4778:	10 40 01 29 	ld32	r9,r9
    477c:	00 40 01 10 	mull	r8,r16
    4780:	20 70 03 e2 	movepc	rret,8
    4784:	14 30 ee 23 	br	10 <compare>,#al
    4788:	00 10 00 41 	add	r2,1
    478c:	0d 40 ad 18 	wl16	r8,0x578
    4790:	0d 60 01 03 	wh16	r8,0x3
    4794:	10 40 01 08 	ld32	r8,r8
    4798:	0d 42 ce 14 	wl16	r16,0x1674
    479c:	0d 60 02 03 	wh16	r16,0x3
    47a0:	10 40 02 10 	ld32	r16,r16
    47a4:	0d 44 ed 30 	wl16	r9,0x2770
    47a8:	0d 60 01 23 	wh16	r9,0x3
    47ac:	10 40 01 29 	ld32	r9,r9
    47b0:	00 40 01 10 	mull	r8,r16
    47b4:	20 70 03 e2 	movepc	rret,8
    47b8:	14 30 ee 16 	br	10 <compare>,#al
    47bc:	00 10 00 41 	add	r2,1
    47c0:	0d 40 ad 1c 	wl16	r8,0x57c
    47c4:	0d 60 01 03 	wh16	r8,0x3
    47c8:	10 40 01 08 	ld32	r8,r8
    47cc:	0d 42 ce 18 	wl16	r16,0x1678
    47d0:	0d 60 02 03 	wh16	r16,0x3
    47d4:	10 40 02 10 	ld32	r16,r16
    47d8:	0d 44 ed 34 	wl16	r9,0x2774
    47dc:	0d 60 01 23 	wh16	r9,0x3
    47e0:	10 40 01 29 	ld32	r9,r9
    47e4:	00 40 01 10 	mull	r8,r16
    47e8:	20 70 03 e2 	movepc	rret,8
    47ec:	14 30 ee 09 	br	10 <compare>,#al
    47f0:	00 10 00 41 	add	r2,1
    47f4:	0d 40 b1 00 	wl16	r8,0x580
    47f8:	0d 60 01 03 	wh16	r8,0x3
    47fc:	10 40 01 08 	ld32	r8,r8
    4800:	0d 42 ce 1c 	wl16	r16,0x167c
    4804:	0d 60 02 03 	wh16	r16,0x3
    4808:	10 40 02 10 	ld32	r16,r16
    480c:	0d 44 ed 38 	wl16	r9,0x2778
    4810:	0d 60 01 23 	wh16	r9,0x3
    4814:	10 40 01 29 	ld32	r9,r9
    4818:	00 40 01 10 	mull	r8,r16
    481c:	20 70 03 e2 	movepc	rret,8
    4820:	14 30 ed fc 	br	10 <compare>,#al
    4824:	00 10 00 41 	add	r2,1
    4828:	0d 40 b1 04 	wl16	r8,0x584
    482c:	0d 60 01 03 	wh16	r8,0x3
    4830:	10 40 01 08 	ld32	r8,r8
    4834:	0d 42 d2 00 	wl16	r16,0x1680
    4838:	0d 60 02 03 	wh16	r16,0x3
    483c:	10 40 02 10 	ld32	r16,r16
    4840:	0d 44 ed 3c 	wl16	r9,0x277c
    4844:	0d 60 01 23 	wh16	r9,0x3
    4848:	10 40 01 29 	ld32	r9,r9
    484c:	00 40 01 10 	mull	r8,r16
    4850:	20 70 03 e2 	movepc	rret,8
    4854:	14 30 ed ef 	br	10 <compare>,#al
    4858:	00 10 00 41 	add	r2,1
    485c:	0d 40 b1 08 	wl16	r8,0x588
    4860:	0d 60 01 03 	wh16	r8,0x3
    4864:	10 40 01 08 	ld32	r8,r8
    4868:	0d 42 d2 04 	wl16	r16,0x1684
    486c:	0d 60 02 03 	wh16	r16,0x3
    4870:	10 40 02 10 	ld32	r16,r16
    4874:	0d 44 f1 20 	wl16	r9,0x2780
    4878:	0d 60 01 23 	wh16	r9,0x3
    487c:	10 40 01 29 	ld32	r9,r9
    4880:	00 40 01 10 	mull	r8,r16
    4884:	20 70 03 e2 	movepc	rret,8
    4888:	14 30 ed e2 	br	10 <compare>,#al
    488c:	00 10 00 41 	add	r2,1
    4890:	0d 40 b1 0c 	wl16	r8,0x58c
    4894:	0d 60 01 03 	wh16	r8,0x3
    4898:	10 40 01 08 	ld32	r8,r8
    489c:	0d 42 d2 08 	wl16	r16,0x1688
    48a0:	0d 60 02 03 	wh16	r16,0x3
    48a4:	10 40 02 10 	ld32	r16,r16
    48a8:	0d 44 f1 24 	wl16	r9,0x2784
    48ac:	0d 60 01 23 	wh16	r9,0x3
    48b0:	10 40 01 29 	ld32	r9,r9
    48b4:	00 40 01 10 	mull	r8,r16
    48b8:	20 70 03 e2 	movepc	rret,8
    48bc:	14 30 ed d5 	br	10 <compare>,#al
    48c0:	00 10 00 41 	add	r2,1
    48c4:	0d 40 b1 10 	wl16	r8,0x590
    48c8:	0d 60 01 03 	wh16	r8,0x3
    48cc:	10 40 01 08 	ld32	r8,r8
    48d0:	0d 42 d2 0c 	wl16	r16,0x168c
    48d4:	0d 60 02 03 	wh16	r16,0x3
    48d8:	10 40 02 10 	ld32	r16,r16
    48dc:	0d 44 f1 28 	wl16	r9,0x2788
    48e0:	0d 60 01 23 	wh16	r9,0x3
    48e4:	10 40 01 29 	ld32	r9,r9
    48e8:	00 40 01 10 	mull	r8,r16
    48ec:	20 70 03 e2 	movepc	rret,8
    48f0:	14 30 ed c8 	br	10 <compare>,#al
    48f4:	00 10 00 41 	add	r2,1
    48f8:	0d 40 b1 14 	wl16	r8,0x594
    48fc:	0d 60 01 03 	wh16	r8,0x3
    4900:	10 40 01 08 	ld32	r8,r8
    4904:	0d 42 d2 10 	wl16	r16,0x1690
    4908:	0d 60 02 03 	wh16	r16,0x3
    490c:	10 40 02 10 	ld32	r16,r16
    4910:	0d 44 f1 2c 	wl16	r9,0x278c
    4914:	0d 60 01 23 	wh16	r9,0x3
    4918:	10 40 01 29 	ld32	r9,r9
    491c:	00 40 01 10 	mull	r8,r16
    4920:	20 70 03 e2 	movepc	rret,8
    4924:	14 30 ed bb 	br	10 <compare>,#al
    4928:	00 10 00 41 	add	r2,1
    492c:	0d 40 b1 18 	wl16	r8,0x598
    4930:	0d 60 01 03 	wh16	r8,0x3
    4934:	10 40 01 08 	ld32	r8,r8
    4938:	0d 42 d2 14 	wl16	r16,0x1694
    493c:	0d 60 02 03 	wh16	r16,0x3
    4940:	10 40 02 10 	ld32	r16,r16
    4944:	0d 44 f1 30 	wl16	r9,0x2790
    4948:	0d 60 01 23 	wh16	r9,0x3
    494c:	10 40 01 29 	ld32	r9,r9
    4950:	00 40 01 10 	mull	r8,r16
    4954:	20 70 03 e2 	movepc	rret,8
    4958:	14 30 ed ae 	br	10 <compare>,#al
    495c:	00 10 00 41 	add	r2,1
    4960:	0d 40 b1 1c 	wl16	r8,0x59c
    4964:	0d 60 01 03 	wh16	r8,0x3
    4968:	10 40 01 08 	ld32	r8,r8
    496c:	0d 42 d2 18 	wl16	r16,0x1698
    4970:	0d 60 02 03 	wh16	r16,0x3
    4974:	10 40 02 10 	ld32	r16,r16
    4978:	0d 44 f1 34 	wl16	r9,0x2794
    497c:	0d 60 01 23 	wh16	r9,0x3
    4980:	10 40 01 29 	ld32	r9,r9
    4984:	00 40 01 10 	mull	r8,r16
    4988:	20 70 03 e2 	movepc	rret,8
    498c:	14 30 ed a1 	br	10 <compare>,#al
    4990:	00 10 00 41 	add	r2,1
    4994:	0d 40 b5 00 	wl16	r8,0x5a0
    4998:	0d 60 01 03 	wh16	r8,0x3
    499c:	10 40 01 08 	ld32	r8,r8
    49a0:	0d 42 d2 1c 	wl16	r16,0x169c
    49a4:	0d 60 02 03 	wh16	r16,0x3
    49a8:	10 40 02 10 	ld32	r16,r16
    49ac:	0d 44 f1 38 	wl16	r9,0x2798
    49b0:	0d 60 01 23 	wh16	r9,0x3
    49b4:	10 40 01 29 	ld32	r9,r9
    49b8:	00 40 01 10 	mull	r8,r16
    49bc:	20 70 03 e2 	movepc	rret,8
    49c0:	14 30 ed 94 	br	10 <compare>,#al
    49c4:	00 10 00 41 	add	r2,1
    49c8:	0d 40 b5 04 	wl16	r8,0x5a4
    49cc:	0d 60 01 03 	wh16	r8,0x3
    49d0:	10 40 01 08 	ld32	r8,r8
    49d4:	0d 42 d6 00 	wl16	r16,0x16a0
    49d8:	0d 60 02 03 	wh16	r16,0x3
    49dc:	10 40 02 10 	ld32	r16,r16
    49e0:	0d 44 f1 3c 	wl16	r9,0x279c
    49e4:	0d 60 01 23 	wh16	r9,0x3
    49e8:	10 40 01 29 	ld32	r9,r9
    49ec:	00 40 01 10 	mull	r8,r16
    49f0:	20 70 03 e2 	movepc	rret,8
    49f4:	14 30 ed 87 	br	10 <compare>,#al
    49f8:	00 10 00 41 	add	r2,1
    49fc:	0d 40 b5 08 	wl16	r8,0x5a8
    4a00:	0d 60 01 03 	wh16	r8,0x3
    4a04:	10 40 01 08 	ld32	r8,r8
    4a08:	0d 42 d6 04 	wl16	r16,0x16a4
    4a0c:	0d 60 02 03 	wh16	r16,0x3
    4a10:	10 40 02 10 	ld32	r16,r16
    4a14:	0d 44 f5 20 	wl16	r9,0x27a0
    4a18:	0d 60 01 23 	wh16	r9,0x3
    4a1c:	10 40 01 29 	ld32	r9,r9
    4a20:	00 40 01 10 	mull	r8,r16
    4a24:	20 70 03 e2 	movepc	rret,8
    4a28:	14 30 ed 7a 	br	10 <compare>,#al
    4a2c:	00 10 00 41 	add	r2,1
    4a30:	0d 40 b5 0c 	wl16	r8,0x5ac
    4a34:	0d 60 01 03 	wh16	r8,0x3
    4a38:	10 40 01 08 	ld32	r8,r8
    4a3c:	0d 42 d6 08 	wl16	r16,0x16a8
    4a40:	0d 60 02 03 	wh16	r16,0x3
    4a44:	10 40 02 10 	ld32	r16,r16
    4a48:	0d 44 f5 24 	wl16	r9,0x27a4
    4a4c:	0d 60 01 23 	wh16	r9,0x3
    4a50:	10 40 01 29 	ld32	r9,r9
    4a54:	00 40 01 10 	mull	r8,r16
    4a58:	20 70 03 e2 	movepc	rret,8
    4a5c:	14 30 ed 6d 	br	10 <compare>,#al
    4a60:	00 10 00 41 	add	r2,1
    4a64:	0d 40 b5 10 	wl16	r8,0x5b0
    4a68:	0d 60 01 03 	wh16	r8,0x3
    4a6c:	10 40 01 08 	ld32	r8,r8
    4a70:	0d 42 d6 0c 	wl16	r16,0x16ac
    4a74:	0d 60 02 03 	wh16	r16,0x3
    4a78:	10 40 02 10 	ld32	r16,r16
    4a7c:	0d 44 f5 28 	wl16	r9,0x27a8
    4a80:	0d 60 01 23 	wh16	r9,0x3
    4a84:	10 40 01 29 	ld32	r9,r9
    4a88:	00 40 01 10 	mull	r8,r16
    4a8c:	20 70 03 e2 	movepc	rret,8
    4a90:	14 30 ed 60 	br	10 <compare>,#al
    4a94:	00 10 00 41 	add	r2,1
    4a98:	0d 40 b5 14 	wl16	r8,0x5b4
    4a9c:	0d 60 01 03 	wh16	r8,0x3
    4aa0:	10 40 01 08 	ld32	r8,r8
    4aa4:	0d 42 d6 10 	wl16	r16,0x16b0
    4aa8:	0d 60 02 03 	wh16	r16,0x3
    4aac:	10 40 02 10 	ld32	r16,r16
    4ab0:	0d 44 f5 2c 	wl16	r9,0x27ac
    4ab4:	0d 60 01 23 	wh16	r9,0x3
    4ab8:	10 40 01 29 	ld32	r9,r9
    4abc:	00 40 01 10 	mull	r8,r16
    4ac0:	20 70 03 e2 	movepc	rret,8
    4ac4:	14 30 ed 53 	br	10 <compare>,#al
    4ac8:	00 10 00 41 	add	r2,1
    4acc:	0d 40 b5 18 	wl16	r8,0x5b8
    4ad0:	0d 60 01 03 	wh16	r8,0x3
    4ad4:	10 40 01 08 	ld32	r8,r8
    4ad8:	0d 42 d6 14 	wl16	r16,0x16b4
    4adc:	0d 60 02 03 	wh16	r16,0x3
    4ae0:	10 40 02 10 	ld32	r16,r16
    4ae4:	0d 44 f5 30 	wl16	r9,0x27b0
    4ae8:	0d 60 01 23 	wh16	r9,0x3
    4aec:	10 40 01 29 	ld32	r9,r9
    4af0:	00 40 01 10 	mull	r8,r16
    4af4:	20 70 03 e2 	movepc	rret,8
    4af8:	14 30 ed 46 	br	10 <compare>,#al
    4afc:	00 10 00 41 	add	r2,1
    4b00:	0d 40 b5 1c 	wl16	r8,0x5bc
    4b04:	0d 60 01 03 	wh16	r8,0x3
    4b08:	10 40 01 08 	ld32	r8,r8
    4b0c:	0d 42 d6 18 	wl16	r16,0x16b8
    4b10:	0d 60 02 03 	wh16	r16,0x3
    4b14:	10 40 02 10 	ld32	r16,r16
    4b18:	0d 44 f5 34 	wl16	r9,0x27b4
    4b1c:	0d 60 01 23 	wh16	r9,0x3
    4b20:	10 40 01 29 	ld32	r9,r9
    4b24:	00 40 01 10 	mull	r8,r16
    4b28:	20 70 03 e2 	movepc	rret,8
    4b2c:	14 30 ed 39 	br	10 <compare>,#al
    4b30:	00 10 00 41 	add	r2,1
    4b34:	0d 40 b9 00 	wl16	r8,0x5c0
    4b38:	0d 60 01 03 	wh16	r8,0x3
    4b3c:	10 40 01 08 	ld32	r8,r8
    4b40:	0d 42 d6 1c 	wl16	r16,0x16bc
    4b44:	0d 60 02 03 	wh16	r16,0x3
    4b48:	10 40 02 10 	ld32	r16,r16
    4b4c:	0d 44 f5 38 	wl16	r9,0x27b8
    4b50:	0d 60 01 23 	wh16	r9,0x3
    4b54:	10 40 01 29 	ld32	r9,r9
    4b58:	00 40 01 10 	mull	r8,r16
    4b5c:	20 70 03 e2 	movepc	rret,8
    4b60:	14 30 ed 2c 	br	10 <compare>,#al
    4b64:	00 10 00 41 	add	r2,1
    4b68:	0d 40 b9 04 	wl16	r8,0x5c4
    4b6c:	0d 60 01 03 	wh16	r8,0x3
    4b70:	10 40 01 08 	ld32	r8,r8
    4b74:	0d 42 da 00 	wl16	r16,0x16c0
    4b78:	0d 60 02 03 	wh16	r16,0x3
    4b7c:	10 40 02 10 	ld32	r16,r16
    4b80:	0d 44 f5 3c 	wl16	r9,0x27bc
    4b84:	0d 60 01 23 	wh16	r9,0x3
    4b88:	10 40 01 29 	ld32	r9,r9
    4b8c:	00 40 01 10 	mull	r8,r16
    4b90:	20 70 03 e2 	movepc	rret,8
    4b94:	14 30 ed 1f 	br	10 <compare>,#al
    4b98:	00 10 00 41 	add	r2,1
    4b9c:	0d 40 b9 08 	wl16	r8,0x5c8
    4ba0:	0d 60 01 03 	wh16	r8,0x3
    4ba4:	10 40 01 08 	ld32	r8,r8
    4ba8:	0d 42 da 04 	wl16	r16,0x16c4
    4bac:	0d 60 02 03 	wh16	r16,0x3
    4bb0:	10 40 02 10 	ld32	r16,r16
    4bb4:	0d 44 f9 20 	wl16	r9,0x27c0
    4bb8:	0d 60 01 23 	wh16	r9,0x3
    4bbc:	10 40 01 29 	ld32	r9,r9
    4bc0:	00 40 01 10 	mull	r8,r16
    4bc4:	20 70 03 e2 	movepc	rret,8
    4bc8:	14 30 ed 12 	br	10 <compare>,#al
    4bcc:	00 10 00 41 	add	r2,1
    4bd0:	0d 40 b9 0c 	wl16	r8,0x5cc
    4bd4:	0d 60 01 03 	wh16	r8,0x3
    4bd8:	10 40 01 08 	ld32	r8,r8
    4bdc:	0d 42 da 08 	wl16	r16,0x16c8
    4be0:	0d 60 02 03 	wh16	r16,0x3
    4be4:	10 40 02 10 	ld32	r16,r16
    4be8:	0d 44 f9 24 	wl16	r9,0x27c4
    4bec:	0d 60 01 23 	wh16	r9,0x3
    4bf0:	10 40 01 29 	ld32	r9,r9
    4bf4:	00 40 01 10 	mull	r8,r16
    4bf8:	20 70 03 e2 	movepc	rret,8
    4bfc:	14 30 ed 05 	br	10 <compare>,#al
    4c00:	00 10 00 41 	add	r2,1
    4c04:	0d 40 b9 10 	wl16	r8,0x5d0
    4c08:	0d 60 01 03 	wh16	r8,0x3
    4c0c:	10 40 01 08 	ld32	r8,r8
    4c10:	0d 42 da 0c 	wl16	r16,0x16cc
    4c14:	0d 60 02 03 	wh16	r16,0x3
    4c18:	10 40 02 10 	ld32	r16,r16
    4c1c:	0d 44 f9 28 	wl16	r9,0x27c8
    4c20:	0d 60 01 23 	wh16	r9,0x3
    4c24:	10 40 01 29 	ld32	r9,r9
    4c28:	00 40 01 10 	mull	r8,r16
    4c2c:	20 70 03 e2 	movepc	rret,8
    4c30:	14 30 ec f8 	br	10 <compare>,#al
    4c34:	00 10 00 41 	add	r2,1
    4c38:	0d 40 b9 14 	wl16	r8,0x5d4
    4c3c:	0d 60 01 03 	wh16	r8,0x3
    4c40:	10 40 01 08 	ld32	r8,r8
    4c44:	0d 42 da 10 	wl16	r16,0x16d0
    4c48:	0d 60 02 03 	wh16	r16,0x3
    4c4c:	10 40 02 10 	ld32	r16,r16
    4c50:	0d 44 f9 2c 	wl16	r9,0x27cc
    4c54:	0d 60 01 23 	wh16	r9,0x3
    4c58:	10 40 01 29 	ld32	r9,r9
    4c5c:	00 40 01 10 	mull	r8,r16
    4c60:	20 70 03 e2 	movepc	rret,8
    4c64:	14 30 ec eb 	br	10 <compare>,#al
    4c68:	00 10 00 41 	add	r2,1
    4c6c:	0d 40 b9 18 	wl16	r8,0x5d8
    4c70:	0d 60 01 03 	wh16	r8,0x3
    4c74:	10 40 01 08 	ld32	r8,r8
    4c78:	0d 42 da 14 	wl16	r16,0x16d4
    4c7c:	0d 60 02 03 	wh16	r16,0x3
    4c80:	10 40 02 10 	ld32	r16,r16
    4c84:	0d 44 f9 30 	wl16	r9,0x27d0
    4c88:	0d 60 01 23 	wh16	r9,0x3
    4c8c:	10 40 01 29 	ld32	r9,r9
    4c90:	00 40 01 10 	mull	r8,r16
    4c94:	20 70 03 e2 	movepc	rret,8
    4c98:	14 30 ec de 	br	10 <compare>,#al
    4c9c:	00 10 00 41 	add	r2,1
    4ca0:	0d 40 b9 1c 	wl16	r8,0x5dc
    4ca4:	0d 60 01 03 	wh16	r8,0x3
    4ca8:	10 40 01 08 	ld32	r8,r8
    4cac:	0d 42 da 18 	wl16	r16,0x16d8
    4cb0:	0d 60 02 03 	wh16	r16,0x3
    4cb4:	10 40 02 10 	ld32	r16,r16
    4cb8:	0d 44 f9 34 	wl16	r9,0x27d4
    4cbc:	0d 60 01 23 	wh16	r9,0x3
    4cc0:	10 40 01 29 	ld32	r9,r9
    4cc4:	00 40 01 10 	mull	r8,r16
    4cc8:	20 70 03 e2 	movepc	rret,8
    4ccc:	14 30 ec d1 	br	10 <compare>,#al
    4cd0:	00 10 00 41 	add	r2,1
    4cd4:	0d 40 bd 00 	wl16	r8,0x5e0
    4cd8:	0d 60 01 03 	wh16	r8,0x3
    4cdc:	10 40 01 08 	ld32	r8,r8
    4ce0:	0d 42 da 1c 	wl16	r16,0x16dc
    4ce4:	0d 60 02 03 	wh16	r16,0x3
    4ce8:	10 40 02 10 	ld32	r16,r16
    4cec:	0d 44 f9 38 	wl16	r9,0x27d8
    4cf0:	0d 60 01 23 	wh16	r9,0x3
    4cf4:	10 40 01 29 	ld32	r9,r9
    4cf8:	00 40 01 10 	mull	r8,r16
    4cfc:	20 70 03 e2 	movepc	rret,8
    4d00:	14 30 ec c4 	br	10 <compare>,#al
    4d04:	00 10 00 41 	add	r2,1
    4d08:	0d 40 bd 04 	wl16	r8,0x5e4
    4d0c:	0d 60 01 03 	wh16	r8,0x3
    4d10:	10 40 01 08 	ld32	r8,r8
    4d14:	0d 42 de 00 	wl16	r16,0x16e0
    4d18:	0d 60 02 03 	wh16	r16,0x3
    4d1c:	10 40 02 10 	ld32	r16,r16
    4d20:	0d 44 f9 3c 	wl16	r9,0x27dc
    4d24:	0d 60 01 23 	wh16	r9,0x3
    4d28:	10 40 01 29 	ld32	r9,r9
    4d2c:	00 40 01 10 	mull	r8,r16
    4d30:	20 70 03 e2 	movepc	rret,8
    4d34:	14 30 ec b7 	br	10 <compare>,#al
    4d38:	00 10 00 41 	add	r2,1
    4d3c:	0d 40 bd 08 	wl16	r8,0x5e8
    4d40:	0d 60 01 03 	wh16	r8,0x3
    4d44:	10 40 01 08 	ld32	r8,r8
    4d48:	0d 42 de 04 	wl16	r16,0x16e4
    4d4c:	0d 60 02 03 	wh16	r16,0x3
    4d50:	10 40 02 10 	ld32	r16,r16
    4d54:	0d 44 fd 20 	wl16	r9,0x27e0
    4d58:	0d 60 01 23 	wh16	r9,0x3
    4d5c:	10 40 01 29 	ld32	r9,r9
    4d60:	00 40 01 10 	mull	r8,r16
    4d64:	20 70 03 e2 	movepc	rret,8
    4d68:	14 30 ec aa 	br	10 <compare>,#al
    4d6c:	00 10 00 41 	add	r2,1
    4d70:	0d 40 bd 0c 	wl16	r8,0x5ec
    4d74:	0d 60 01 03 	wh16	r8,0x3
    4d78:	10 40 01 08 	ld32	r8,r8
    4d7c:	0d 42 de 08 	wl16	r16,0x16e8
    4d80:	0d 60 02 03 	wh16	r16,0x3
    4d84:	10 40 02 10 	ld32	r16,r16
    4d88:	0d 44 fd 24 	wl16	r9,0x27e4
    4d8c:	0d 60 01 23 	wh16	r9,0x3
    4d90:	10 40 01 29 	ld32	r9,r9
    4d94:	00 40 01 10 	mull	r8,r16
    4d98:	20 70 03 e2 	movepc	rret,8
    4d9c:	14 30 ec 9d 	br	10 <compare>,#al
    4da0:	00 10 00 41 	add	r2,1
    4da4:	0d 40 bd 10 	wl16	r8,0x5f0
    4da8:	0d 60 01 03 	wh16	r8,0x3
    4dac:	10 40 01 08 	ld32	r8,r8
    4db0:	0d 42 de 0c 	wl16	r16,0x16ec
    4db4:	0d 60 02 03 	wh16	r16,0x3
    4db8:	10 40 02 10 	ld32	r16,r16
    4dbc:	0d 44 fd 28 	wl16	r9,0x27e8
    4dc0:	0d 60 01 23 	wh16	r9,0x3
    4dc4:	10 40 01 29 	ld32	r9,r9
    4dc8:	00 40 01 10 	mull	r8,r16
    4dcc:	20 70 03 e2 	movepc	rret,8
    4dd0:	14 30 ec 90 	br	10 <compare>,#al
    4dd4:	00 10 00 41 	add	r2,1
    4dd8:	0d 40 bd 14 	wl16	r8,0x5f4
    4ddc:	0d 60 01 03 	wh16	r8,0x3
    4de0:	10 40 01 08 	ld32	r8,r8
    4de4:	0d 42 de 10 	wl16	r16,0x16f0
    4de8:	0d 60 02 03 	wh16	r16,0x3
    4dec:	10 40 02 10 	ld32	r16,r16
    4df0:	0d 44 fd 2c 	wl16	r9,0x27ec
    4df4:	0d 60 01 23 	wh16	r9,0x3
    4df8:	10 40 01 29 	ld32	r9,r9
    4dfc:	00 40 01 10 	mull	r8,r16
    4e00:	20 70 03 e2 	movepc	rret,8
    4e04:	14 30 ec 83 	br	10 <compare>,#al
    4e08:	00 10 00 41 	add	r2,1
    4e0c:	0d 40 bd 18 	wl16	r8,0x5f8
    4e10:	0d 60 01 03 	wh16	r8,0x3
    4e14:	10 40 01 08 	ld32	r8,r8
    4e18:	0d 42 de 14 	wl16	r16,0x16f4
    4e1c:	0d 60 02 03 	wh16	r16,0x3
    4e20:	10 40 02 10 	ld32	r16,r16
    4e24:	0d 44 fd 30 	wl16	r9,0x27f0
    4e28:	0d 60 01 23 	wh16	r9,0x3
    4e2c:	10 40 01 29 	ld32	r9,r9
    4e30:	00 40 01 10 	mull	r8,r16
    4e34:	20 70 03 e2 	movepc	rret,8
    4e38:	14 30 ec 76 	br	10 <compare>,#al
    4e3c:	00 10 00 41 	add	r2,1
    4e40:	0d 40 bd 1c 	wl16	r8,0x5fc
    4e44:	0d 60 01 03 	wh16	r8,0x3
    4e48:	10 40 01 08 	ld32	r8,r8
    4e4c:	0d 42 de 18 	wl16	r16,0x16f8
    4e50:	0d 60 02 03 	wh16	r16,0x3
    4e54:	10 40 02 10 	ld32	r16,r16
    4e58:	0d 44 fd 34 	wl16	r9,0x27f4
    4e5c:	0d 60 01 23 	wh16	r9,0x3
    4e60:	10 40 01 29 	ld32	r9,r9
    4e64:	00 40 01 10 	mull	r8,r16
    4e68:	20 70 03 e2 	movepc	rret,8
    4e6c:	14 30 ec 69 	br	10 <compare>,#al
    4e70:	00 10 00 41 	add	r2,1
    4e74:	0d 40 c1 00 	wl16	r8,0x600
    4e78:	0d 60 01 03 	wh16	r8,0x3
    4e7c:	10 40 01 08 	ld32	r8,r8
    4e80:	0d 42 de 1c 	wl16	r16,0x16fc
    4e84:	0d 60 02 03 	wh16	r16,0x3
    4e88:	10 40 02 10 	ld32	r16,r16
    4e8c:	0d 44 fd 38 	wl16	r9,0x27f8
    4e90:	0d 60 01 23 	wh16	r9,0x3
    4e94:	10 40 01 29 	ld32	r9,r9
    4e98:	00 40 01 10 	mull	r8,r16
    4e9c:	20 70 03 e2 	movepc	rret,8
    4ea0:	14 30 ec 5c 	br	10 <compare>,#al
    4ea4:	00 10 00 41 	add	r2,1
    4ea8:	0d 40 c1 04 	wl16	r8,0x604
    4eac:	0d 60 01 03 	wh16	r8,0x3
    4eb0:	10 40 01 08 	ld32	r8,r8
    4eb4:	0d 42 e2 00 	wl16	r16,0x1700
    4eb8:	0d 60 02 03 	wh16	r16,0x3
    4ebc:	10 40 02 10 	ld32	r16,r16
    4ec0:	0d 44 fd 3c 	wl16	r9,0x27fc
    4ec4:	0d 60 01 23 	wh16	r9,0x3
    4ec8:	10 40 01 29 	ld32	r9,r9
    4ecc:	00 40 01 10 	mull	r8,r16
    4ed0:	20 70 03 e2 	movepc	rret,8
    4ed4:	14 30 ec 4f 	br	10 <compare>,#al
    4ed8:	00 10 00 41 	add	r2,1
    4edc:	0d 40 c1 08 	wl16	r8,0x608
    4ee0:	0d 60 01 03 	wh16	r8,0x3
    4ee4:	10 40 01 08 	ld32	r8,r8
    4ee8:	0d 42 e2 04 	wl16	r16,0x1704
    4eec:	0d 60 02 03 	wh16	r16,0x3
    4ef0:	10 40 02 10 	ld32	r16,r16
    4ef4:	0d 45 01 20 	wl16	r9,0x2800
    4ef8:	0d 60 01 23 	wh16	r9,0x3
    4efc:	10 40 01 29 	ld32	r9,r9
    4f00:	00 40 01 10 	mull	r8,r16
    4f04:	20 70 03 e2 	movepc	rret,8
    4f08:	14 30 ec 42 	br	10 <compare>,#al
    4f0c:	00 10 00 41 	add	r2,1
    4f10:	0d 40 c1 0c 	wl16	r8,0x60c
    4f14:	0d 60 01 03 	wh16	r8,0x3
    4f18:	10 40 01 08 	ld32	r8,r8
    4f1c:	0d 42 e2 08 	wl16	r16,0x1708
    4f20:	0d 60 02 03 	wh16	r16,0x3
    4f24:	10 40 02 10 	ld32	r16,r16
    4f28:	0d 45 01 24 	wl16	r9,0x2804
    4f2c:	0d 60 01 23 	wh16	r9,0x3
    4f30:	10 40 01 29 	ld32	r9,r9
    4f34:	00 40 01 10 	mull	r8,r16
    4f38:	20 70 03 e2 	movepc	rret,8
    4f3c:	14 30 ec 35 	br	10 <compare>,#al
    4f40:	00 10 00 41 	add	r2,1
    4f44:	0d 40 c1 10 	wl16	r8,0x610
    4f48:	0d 60 01 03 	wh16	r8,0x3
    4f4c:	10 40 01 08 	ld32	r8,r8
    4f50:	0d 42 e2 0c 	wl16	r16,0x170c
    4f54:	0d 60 02 03 	wh16	r16,0x3
    4f58:	10 40 02 10 	ld32	r16,r16
    4f5c:	0d 45 01 28 	wl16	r9,0x2808
    4f60:	0d 60 01 23 	wh16	r9,0x3
    4f64:	10 40 01 29 	ld32	r9,r9
    4f68:	00 40 01 10 	mull	r8,r16
    4f6c:	20 70 03 e2 	movepc	rret,8
    4f70:	14 30 ec 28 	br	10 <compare>,#al
    4f74:	00 10 00 41 	add	r2,1
    4f78:	0d 40 c1 14 	wl16	r8,0x614
    4f7c:	0d 60 01 03 	wh16	r8,0x3
    4f80:	10 40 01 08 	ld32	r8,r8
    4f84:	0d 42 e2 10 	wl16	r16,0x1710
    4f88:	0d 60 02 03 	wh16	r16,0x3
    4f8c:	10 40 02 10 	ld32	r16,r16
    4f90:	0d 45 01 2c 	wl16	r9,0x280c
    4f94:	0d 60 01 23 	wh16	r9,0x3
    4f98:	10 40 01 29 	ld32	r9,r9
    4f9c:	00 40 01 10 	mull	r8,r16
    4fa0:	20 70 03 e2 	movepc	rret,8
    4fa4:	14 30 ec 1b 	br	10 <compare>,#al
    4fa8:	00 10 00 41 	add	r2,1
    4fac:	0d 40 c1 18 	wl16	r8,0x618
    4fb0:	0d 60 01 03 	wh16	r8,0x3
    4fb4:	10 40 01 08 	ld32	r8,r8
    4fb8:	0d 42 e2 14 	wl16	r16,0x1714
    4fbc:	0d 60 02 03 	wh16	r16,0x3
    4fc0:	10 40 02 10 	ld32	r16,r16
    4fc4:	0d 45 01 30 	wl16	r9,0x2810
    4fc8:	0d 60 01 23 	wh16	r9,0x3
    4fcc:	10 40 01 29 	ld32	r9,r9
    4fd0:	00 40 01 10 	mull	r8,r16
    4fd4:	20 70 03 e2 	movepc	rret,8
    4fd8:	14 30 ec 0e 	br	10 <compare>,#al
    4fdc:	00 10 00 41 	add	r2,1
    4fe0:	0d 40 c1 1c 	wl16	r8,0x61c
    4fe4:	0d 60 01 03 	wh16	r8,0x3
    4fe8:	10 40 01 08 	ld32	r8,r8
    4fec:	0d 42 e2 18 	wl16	r16,0x1718
    4ff0:	0d 60 02 03 	wh16	r16,0x3
    4ff4:	10 40 02 10 	ld32	r16,r16
    4ff8:	0d 45 01 34 	wl16	r9,0x2814
    4ffc:	0d 60 01 23 	wh16	r9,0x3
    5000:	10 40 01 29 	ld32	r9,r9
    5004:	00 40 01 10 	mull	r8,r16
    5008:	20 70 03 e2 	movepc	rret,8
    500c:	14 30 ec 01 	br	10 <compare>,#al
    5010:	00 10 00 41 	add	r2,1
    5014:	0d 40 c5 00 	wl16	r8,0x620
    5018:	0d 60 01 03 	wh16	r8,0x3
    501c:	10 40 01 08 	ld32	r8,r8
    5020:	0d 42 e2 1c 	wl16	r16,0x171c
    5024:	0d 60 02 03 	wh16	r16,0x3
    5028:	10 40 02 10 	ld32	r16,r16
    502c:	0d 45 01 38 	wl16	r9,0x2818
    5030:	0d 60 01 23 	wh16	r9,0x3
    5034:	10 40 01 29 	ld32	r9,r9
    5038:	00 40 01 10 	mull	r8,r16
    503c:	20 70 03 e2 	movepc	rret,8
    5040:	14 30 eb f4 	br	10 <compare>,#al
    5044:	00 10 00 41 	add	r2,1
    5048:	0d 40 c5 04 	wl16	r8,0x624
    504c:	0d 60 01 03 	wh16	r8,0x3
    5050:	10 40 01 08 	ld32	r8,r8
    5054:	0d 42 e6 00 	wl16	r16,0x1720
    5058:	0d 60 02 03 	wh16	r16,0x3
    505c:	10 40 02 10 	ld32	r16,r16
    5060:	0d 45 01 3c 	wl16	r9,0x281c
    5064:	0d 60 01 23 	wh16	r9,0x3
    5068:	10 40 01 29 	ld32	r9,r9
    506c:	00 40 01 10 	mull	r8,r16
    5070:	20 70 03 e2 	movepc	rret,8
    5074:	14 30 eb e7 	br	10 <compare>,#al
    5078:	00 10 00 41 	add	r2,1
    507c:	0d 40 c5 08 	wl16	r8,0x628
    5080:	0d 60 01 03 	wh16	r8,0x3
    5084:	10 40 01 08 	ld32	r8,r8
    5088:	0d 42 e6 04 	wl16	r16,0x1724
    508c:	0d 60 02 03 	wh16	r16,0x3
    5090:	10 40 02 10 	ld32	r16,r16
    5094:	0d 45 05 20 	wl16	r9,0x2820
    5098:	0d 60 01 23 	wh16	r9,0x3
    509c:	10 40 01 29 	ld32	r9,r9
    50a0:	00 40 01 10 	mull	r8,r16
    50a4:	20 70 03 e2 	movepc	rret,8
    50a8:	14 30 eb da 	br	10 <compare>,#al
    50ac:	00 10 00 41 	add	r2,1
    50b0:	0d 40 c5 0c 	wl16	r8,0x62c
    50b4:	0d 60 01 03 	wh16	r8,0x3
    50b8:	10 40 01 08 	ld32	r8,r8
    50bc:	0d 42 e6 08 	wl16	r16,0x1728
    50c0:	0d 60 02 03 	wh16	r16,0x3
    50c4:	10 40 02 10 	ld32	r16,r16
    50c8:	0d 45 05 24 	wl16	r9,0x2824
    50cc:	0d 60 01 23 	wh16	r9,0x3
    50d0:	10 40 01 29 	ld32	r9,r9
    50d4:	00 40 01 10 	mull	r8,r16
    50d8:	20 70 03 e2 	movepc	rret,8
    50dc:	14 30 eb cd 	br	10 <compare>,#al
    50e0:	00 10 00 41 	add	r2,1
    50e4:	0d 40 c5 10 	wl16	r8,0x630
    50e8:	0d 60 01 03 	wh16	r8,0x3
    50ec:	10 40 01 08 	ld32	r8,r8
    50f0:	0d 42 e6 0c 	wl16	r16,0x172c
    50f4:	0d 60 02 03 	wh16	r16,0x3
    50f8:	10 40 02 10 	ld32	r16,r16
    50fc:	0d 45 05 28 	wl16	r9,0x2828
    5100:	0d 60 01 23 	wh16	r9,0x3
    5104:	10 40 01 29 	ld32	r9,r9
    5108:	00 40 01 10 	mull	r8,r16
    510c:	20 70 03 e2 	movepc	rret,8
    5110:	14 30 eb c0 	br	10 <compare>,#al
    5114:	00 10 00 41 	add	r2,1
    5118:	0d 40 c5 14 	wl16	r8,0x634
    511c:	0d 60 01 03 	wh16	r8,0x3
    5120:	10 40 01 08 	ld32	r8,r8
    5124:	0d 42 e6 10 	wl16	r16,0x1730
    5128:	0d 60 02 03 	wh16	r16,0x3
    512c:	10 40 02 10 	ld32	r16,r16
    5130:	0d 45 05 2c 	wl16	r9,0x282c
    5134:	0d 60 01 23 	wh16	r9,0x3
    5138:	10 40 01 29 	ld32	r9,r9
    513c:	00 40 01 10 	mull	r8,r16
    5140:	20 70 03 e2 	movepc	rret,8
    5144:	14 30 eb b3 	br	10 <compare>,#al
    5148:	00 10 00 41 	add	r2,1
    514c:	0d 40 c5 18 	wl16	r8,0x638
    5150:	0d 60 01 03 	wh16	r8,0x3
    5154:	10 40 01 08 	ld32	r8,r8
    5158:	0d 42 e6 14 	wl16	r16,0x1734
    515c:	0d 60 02 03 	wh16	r16,0x3
    5160:	10 40 02 10 	ld32	r16,r16
    5164:	0d 45 05 30 	wl16	r9,0x2830
    5168:	0d 60 01 23 	wh16	r9,0x3
    516c:	10 40 01 29 	ld32	r9,r9
    5170:	00 40 01 10 	mull	r8,r16
    5174:	20 70 03 e2 	movepc	rret,8
    5178:	14 30 eb a6 	br	10 <compare>,#al
    517c:	00 10 00 41 	add	r2,1
    5180:	0d 40 c5 1c 	wl16	r8,0x63c
    5184:	0d 60 01 03 	wh16	r8,0x3
    5188:	10 40 01 08 	ld32	r8,r8
    518c:	0d 42 e6 18 	wl16	r16,0x1738
    5190:	0d 60 02 03 	wh16	r16,0x3
    5194:	10 40 02 10 	ld32	r16,r16
    5198:	0d 45 05 34 	wl16	r9,0x2834
    519c:	0d 60 01 23 	wh16	r9,0x3
    51a0:	10 40 01 29 	ld32	r9,r9
    51a4:	00 40 01 10 	mull	r8,r16
    51a8:	20 70 03 e2 	movepc	rret,8
    51ac:	14 30 eb 99 	br	10 <compare>,#al
    51b0:	00 10 00 41 	add	r2,1
    51b4:	0d 40 c9 00 	wl16	r8,0x640
    51b8:	0d 60 01 03 	wh16	r8,0x3
    51bc:	10 40 01 08 	ld32	r8,r8
    51c0:	0d 42 e6 1c 	wl16	r16,0x173c
    51c4:	0d 60 02 03 	wh16	r16,0x3
    51c8:	10 40 02 10 	ld32	r16,r16
    51cc:	0d 45 05 38 	wl16	r9,0x2838
    51d0:	0d 60 01 23 	wh16	r9,0x3
    51d4:	10 40 01 29 	ld32	r9,r9
    51d8:	00 40 01 10 	mull	r8,r16
    51dc:	20 70 03 e2 	movepc	rret,8
    51e0:	14 30 eb 8c 	br	10 <compare>,#al
    51e4:	00 10 00 41 	add	r2,1
    51e8:	0d 40 c9 04 	wl16	r8,0x644
    51ec:	0d 60 01 03 	wh16	r8,0x3
    51f0:	10 40 01 08 	ld32	r8,r8
    51f4:	0d 42 ea 00 	wl16	r16,0x1740
    51f8:	0d 60 02 03 	wh16	r16,0x3
    51fc:	10 40 02 10 	ld32	r16,r16
    5200:	0d 45 05 3c 	wl16	r9,0x283c
    5204:	0d 60 01 23 	wh16	r9,0x3
    5208:	10 40 01 29 	ld32	r9,r9
    520c:	00 40 01 10 	mull	r8,r16
    5210:	20 70 03 e2 	movepc	rret,8
    5214:	14 30 eb 7f 	br	10 <compare>,#al
    5218:	00 10 00 41 	add	r2,1
    521c:	0d 40 c9 08 	wl16	r8,0x648
    5220:	0d 60 01 03 	wh16	r8,0x3
    5224:	10 40 01 08 	ld32	r8,r8
    5228:	0d 42 ea 04 	wl16	r16,0x1744
    522c:	0d 60 02 03 	wh16	r16,0x3
    5230:	10 40 02 10 	ld32	r16,r16
    5234:	0d 45 09 20 	wl16	r9,0x2840
    5238:	0d 60 01 23 	wh16	r9,0x3
    523c:	10 40 01 29 	ld32	r9,r9
    5240:	00 40 01 10 	mull	r8,r16
    5244:	20 70 03 e2 	movepc	rret,8
    5248:	14 30 eb 72 	br	10 <compare>,#al
    524c:	00 10 00 41 	add	r2,1
    5250:	0d 40 c9 0c 	wl16	r8,0x64c
    5254:	0d 60 01 03 	wh16	r8,0x3
    5258:	10 40 01 08 	ld32	r8,r8
    525c:	0d 42 ea 08 	wl16	r16,0x1748
    5260:	0d 60 02 03 	wh16	r16,0x3
    5264:	10 40 02 10 	ld32	r16,r16
    5268:	0d 45 09 24 	wl16	r9,0x2844
    526c:	0d 60 01 23 	wh16	r9,0x3
    5270:	10 40 01 29 	ld32	r9,r9
    5274:	00 40 01 10 	mull	r8,r16
    5278:	20 70 03 e2 	movepc	rret,8
    527c:	14 30 eb 65 	br	10 <compare>,#al
    5280:	00 10 00 41 	add	r2,1
    5284:	0d 40 c9 10 	wl16	r8,0x650
    5288:	0d 60 01 03 	wh16	r8,0x3
    528c:	10 40 01 08 	ld32	r8,r8
    5290:	0d 42 ea 0c 	wl16	r16,0x174c
    5294:	0d 60 02 03 	wh16	r16,0x3
    5298:	10 40 02 10 	ld32	r16,r16
    529c:	0d 45 09 28 	wl16	r9,0x2848
    52a0:	0d 60 01 23 	wh16	r9,0x3
    52a4:	10 40 01 29 	ld32	r9,r9
    52a8:	00 40 01 10 	mull	r8,r16
    52ac:	20 70 03 e2 	movepc	rret,8
    52b0:	14 30 eb 58 	br	10 <compare>,#al
    52b4:	00 10 00 41 	add	r2,1
    52b8:	0d 40 c9 14 	wl16	r8,0x654
    52bc:	0d 60 01 03 	wh16	r8,0x3
    52c0:	10 40 01 08 	ld32	r8,r8
    52c4:	0d 42 ea 10 	wl16	r16,0x1750
    52c8:	0d 60 02 03 	wh16	r16,0x3
    52cc:	10 40 02 10 	ld32	r16,r16
    52d0:	0d 45 09 2c 	wl16	r9,0x284c
    52d4:	0d 60 01 23 	wh16	r9,0x3
    52d8:	10 40 01 29 	ld32	r9,r9
    52dc:	00 40 01 10 	mull	r8,r16
    52e0:	20 70 03 e2 	movepc	rret,8
    52e4:	14 30 eb 4b 	br	10 <compare>,#al
    52e8:	00 10 00 41 	add	r2,1
    52ec:	0d 40 c9 18 	wl16	r8,0x658
    52f0:	0d 60 01 03 	wh16	r8,0x3
    52f4:	10 40 01 08 	ld32	r8,r8
    52f8:	0d 42 ea 14 	wl16	r16,0x1754
    52fc:	0d 60 02 03 	wh16	r16,0x3
    5300:	10 40 02 10 	ld32	r16,r16
    5304:	0d 45 09 30 	wl16	r9,0x2850
    5308:	0d 60 01 23 	wh16	r9,0x3
    530c:	10 40 01 29 	ld32	r9,r9
    5310:	00 40 01 10 	mull	r8,r16
    5314:	20 70 03 e2 	movepc	rret,8
    5318:	14 30 eb 3e 	br	10 <compare>,#al
    531c:	00 10 00 41 	add	r2,1
    5320:	0d 40 c9 1c 	wl16	r8,0x65c
    5324:	0d 60 01 03 	wh16	r8,0x3
    5328:	10 40 01 08 	ld32	r8,r8
    532c:	0d 42 ea 18 	wl16	r16,0x1758
    5330:	0d 60 02 03 	wh16	r16,0x3
    5334:	10 40 02 10 	ld32	r16,r16
    5338:	0d 45 09 34 	wl16	r9,0x2854
    533c:	0d 60 01 23 	wh16	r9,0x3
    5340:	10 40 01 29 	ld32	r9,r9
    5344:	00 40 01 10 	mull	r8,r16
    5348:	20 70 03 e2 	movepc	rret,8
    534c:	14 30 eb 31 	br	10 <compare>,#al
    5350:	00 10 00 41 	add	r2,1
    5354:	0d 40 cd 00 	wl16	r8,0x660
    5358:	0d 60 01 03 	wh16	r8,0x3
    535c:	10 40 01 08 	ld32	r8,r8
    5360:	0d 42 ea 1c 	wl16	r16,0x175c
    5364:	0d 60 02 03 	wh16	r16,0x3
    5368:	10 40 02 10 	ld32	r16,r16
    536c:	0d 45 09 38 	wl16	r9,0x2858
    5370:	0d 60 01 23 	wh16	r9,0x3
    5374:	10 40 01 29 	ld32	r9,r9
    5378:	00 40 01 10 	mull	r8,r16
    537c:	20 70 03 e2 	movepc	rret,8
    5380:	14 30 eb 24 	br	10 <compare>,#al
    5384:	00 10 00 41 	add	r2,1
    5388:	0d 40 cd 04 	wl16	r8,0x664
    538c:	0d 60 01 03 	wh16	r8,0x3
    5390:	10 40 01 08 	ld32	r8,r8
    5394:	0d 42 ee 00 	wl16	r16,0x1760
    5398:	0d 60 02 03 	wh16	r16,0x3
    539c:	10 40 02 10 	ld32	r16,r16
    53a0:	0d 45 09 3c 	wl16	r9,0x285c
    53a4:	0d 60 01 23 	wh16	r9,0x3
    53a8:	10 40 01 29 	ld32	r9,r9
    53ac:	00 40 01 10 	mull	r8,r16
    53b0:	20 70 03 e2 	movepc	rret,8
    53b4:	14 30 eb 17 	br	10 <compare>,#al
    53b8:	00 10 00 41 	add	r2,1
    53bc:	0d 40 cd 08 	wl16	r8,0x668
    53c0:	0d 60 01 03 	wh16	r8,0x3
    53c4:	10 40 01 08 	ld32	r8,r8
    53c8:	0d 42 ee 04 	wl16	r16,0x1764
    53cc:	0d 60 02 03 	wh16	r16,0x3
    53d0:	10 40 02 10 	ld32	r16,r16
    53d4:	0d 45 0d 20 	wl16	r9,0x2860
    53d8:	0d 60 01 23 	wh16	r9,0x3
    53dc:	10 40 01 29 	ld32	r9,r9
    53e0:	00 40 01 10 	mull	r8,r16
    53e4:	20 70 03 e2 	movepc	rret,8
    53e8:	14 30 eb 0a 	br	10 <compare>,#al
    53ec:	00 10 00 41 	add	r2,1
    53f0:	0d 40 cd 0c 	wl16	r8,0x66c
    53f4:	0d 60 01 03 	wh16	r8,0x3
    53f8:	10 40 01 08 	ld32	r8,r8
    53fc:	0d 42 ee 08 	wl16	r16,0x1768
    5400:	0d 60 02 03 	wh16	r16,0x3
    5404:	10 40 02 10 	ld32	r16,r16
    5408:	0d 45 0d 24 	wl16	r9,0x2864
    540c:	0d 60 01 23 	wh16	r9,0x3
    5410:	10 40 01 29 	ld32	r9,r9
    5414:	00 40 01 10 	mull	r8,r16
    5418:	20 70 03 e2 	movepc	rret,8
    541c:	14 30 ea fd 	br	10 <compare>,#al
    5420:	00 10 00 41 	add	r2,1
    5424:	0d 40 cd 10 	wl16	r8,0x670
    5428:	0d 60 01 03 	wh16	r8,0x3
    542c:	10 40 01 08 	ld32	r8,r8
    5430:	0d 42 ee 0c 	wl16	r16,0x176c
    5434:	0d 60 02 03 	wh16	r16,0x3
    5438:	10 40 02 10 	ld32	r16,r16
    543c:	0d 45 0d 28 	wl16	r9,0x2868
    5440:	0d 60 01 23 	wh16	r9,0x3
    5444:	10 40 01 29 	ld32	r9,r9
    5448:	00 40 01 10 	mull	r8,r16
    544c:	20 70 03 e2 	movepc	rret,8
    5450:	14 30 ea f0 	br	10 <compare>,#al
    5454:	00 10 00 41 	add	r2,1
    5458:	0d 40 cd 14 	wl16	r8,0x674
    545c:	0d 60 01 03 	wh16	r8,0x3
    5460:	10 40 01 08 	ld32	r8,r8
    5464:	0d 42 ee 10 	wl16	r16,0x1770
    5468:	0d 60 02 03 	wh16	r16,0x3
    546c:	10 40 02 10 	ld32	r16,r16
    5470:	0d 45 0d 2c 	wl16	r9,0x286c
    5474:	0d 60 01 23 	wh16	r9,0x3
    5478:	10 40 01 29 	ld32	r9,r9
    547c:	00 40 01 10 	mull	r8,r16
    5480:	20 70 03 e2 	movepc	rret,8
    5484:	14 30 ea e3 	br	10 <compare>,#al
    5488:	00 10 00 41 	add	r2,1
    548c:	0d 40 cd 18 	wl16	r8,0x678
    5490:	0d 60 01 03 	wh16	r8,0x3
    5494:	10 40 01 08 	ld32	r8,r8
    5498:	0d 42 ee 14 	wl16	r16,0x1774
    549c:	0d 60 02 03 	wh16	r16,0x3
    54a0:	10 40 02 10 	ld32	r16,r16
    54a4:	0d 45 0d 30 	wl16	r9,0x2870
    54a8:	0d 60 01 23 	wh16	r9,0x3
    54ac:	10 40 01 29 	ld32	r9,r9
    54b0:	00 40 01 10 	mull	r8,r16
    54b4:	20 70 03 e2 	movepc	rret,8
    54b8:	14 30 ea d6 	br	10 <compare>,#al
    54bc:	00 10 00 41 	add	r2,1
    54c0:	0d 40 cd 1c 	wl16	r8,0x67c
    54c4:	0d 60 01 03 	wh16	r8,0x3
    54c8:	10 40 01 08 	ld32	r8,r8
    54cc:	0d 42 ee 18 	wl16	r16,0x1778
    54d0:	0d 60 02 03 	wh16	r16,0x3
    54d4:	10 40 02 10 	ld32	r16,r16
    54d8:	0d 45 0d 34 	wl16	r9,0x2874
    54dc:	0d 60 01 23 	wh16	r9,0x3
    54e0:	10 40 01 29 	ld32	r9,r9
    54e4:	00 40 01 10 	mull	r8,r16
    54e8:	20 70 03 e2 	movepc	rret,8
    54ec:	14 30 ea c9 	br	10 <compare>,#al
    54f0:	00 10 00 41 	add	r2,1
    54f4:	0d 40 d1 00 	wl16	r8,0x680
    54f8:	0d 60 01 03 	wh16	r8,0x3
    54fc:	10 40 01 08 	ld32	r8,r8
    5500:	0d 42 ee 1c 	wl16	r16,0x177c
    5504:	0d 60 02 03 	wh16	r16,0x3
    5508:	10 40 02 10 	ld32	r16,r16
    550c:	0d 45 0d 38 	wl16	r9,0x2878
    5510:	0d 60 01 23 	wh16	r9,0x3
    5514:	10 40 01 29 	ld32	r9,r9
    5518:	00 40 01 10 	mull	r8,r16
    551c:	20 70 03 e2 	movepc	rret,8
    5520:	14 30 ea bc 	br	10 <compare>,#al
    5524:	00 10 00 41 	add	r2,1
    5528:	0d 40 d1 04 	wl16	r8,0x684
    552c:	0d 60 01 03 	wh16	r8,0x3
    5530:	10 40 01 08 	ld32	r8,r8
    5534:	0d 42 f2 00 	wl16	r16,0x1780
    5538:	0d 60 02 03 	wh16	r16,0x3
    553c:	10 40 02 10 	ld32	r16,r16
    5540:	0d 45 0d 3c 	wl16	r9,0x287c
    5544:	0d 60 01 23 	wh16	r9,0x3
    5548:	10 40 01 29 	ld32	r9,r9
    554c:	00 40 01 10 	mull	r8,r16
    5550:	20 70 03 e2 	movepc	rret,8
    5554:	14 30 ea af 	br	10 <compare>,#al
    5558:	00 10 00 41 	add	r2,1
    555c:	0d 40 d1 08 	wl16	r8,0x688
    5560:	0d 60 01 03 	wh16	r8,0x3
    5564:	10 40 01 08 	ld32	r8,r8
    5568:	0d 42 f2 04 	wl16	r16,0x1784
    556c:	0d 60 02 03 	wh16	r16,0x3
    5570:	10 40 02 10 	ld32	r16,r16
    5574:	0d 45 11 20 	wl16	r9,0x2880
    5578:	0d 60 01 23 	wh16	r9,0x3
    557c:	10 40 01 29 	ld32	r9,r9
    5580:	00 40 01 10 	mull	r8,r16
    5584:	20 70 03 e2 	movepc	rret,8
    5588:	14 30 ea a2 	br	10 <compare>,#al
    558c:	00 10 00 41 	add	r2,1
    5590:	0d 40 d1 0c 	wl16	r8,0x68c
    5594:	0d 60 01 03 	wh16	r8,0x3
    5598:	10 40 01 08 	ld32	r8,r8
    559c:	0d 42 f2 08 	wl16	r16,0x1788
    55a0:	0d 60 02 03 	wh16	r16,0x3
    55a4:	10 40 02 10 	ld32	r16,r16
    55a8:	0d 45 11 24 	wl16	r9,0x2884
    55ac:	0d 60 01 23 	wh16	r9,0x3
    55b0:	10 40 01 29 	ld32	r9,r9
    55b4:	00 40 01 10 	mull	r8,r16
    55b8:	20 70 03 e2 	movepc	rret,8
    55bc:	14 30 ea 95 	br	10 <compare>,#al
    55c0:	00 10 00 41 	add	r2,1
    55c4:	0d 40 d1 10 	wl16	r8,0x690
    55c8:	0d 60 01 03 	wh16	r8,0x3
    55cc:	10 40 01 08 	ld32	r8,r8
    55d0:	0d 42 f2 0c 	wl16	r16,0x178c
    55d4:	0d 60 02 03 	wh16	r16,0x3
    55d8:	10 40 02 10 	ld32	r16,r16
    55dc:	0d 45 11 28 	wl16	r9,0x2888
    55e0:	0d 60 01 23 	wh16	r9,0x3
    55e4:	10 40 01 29 	ld32	r9,r9
    55e8:	00 40 01 10 	mull	r8,r16
    55ec:	20 70 03 e2 	movepc	rret,8
    55f0:	14 30 ea 88 	br	10 <compare>,#al
    55f4:	00 10 00 41 	add	r2,1
    55f8:	0d 40 d1 14 	wl16	r8,0x694
    55fc:	0d 60 01 03 	wh16	r8,0x3
    5600:	10 40 01 08 	ld32	r8,r8
    5604:	0d 42 f2 10 	wl16	r16,0x1790
    5608:	0d 60 02 03 	wh16	r16,0x3
    560c:	10 40 02 10 	ld32	r16,r16
    5610:	0d 45 11 2c 	wl16	r9,0x288c
    5614:	0d 60 01 23 	wh16	r9,0x3
    5618:	10 40 01 29 	ld32	r9,r9
    561c:	00 40 01 10 	mull	r8,r16
    5620:	20 70 03 e2 	movepc	rret,8
    5624:	14 30 ea 7b 	br	10 <compare>,#al
    5628:	00 10 00 41 	add	r2,1
    562c:	0d 40 d1 18 	wl16	r8,0x698
    5630:	0d 60 01 03 	wh16	r8,0x3
    5634:	10 40 01 08 	ld32	r8,r8
    5638:	0d 42 f2 14 	wl16	r16,0x1794
    563c:	0d 60 02 03 	wh16	r16,0x3
    5640:	10 40 02 10 	ld32	r16,r16
    5644:	0d 45 11 30 	wl16	r9,0x2890
    5648:	0d 60 01 23 	wh16	r9,0x3
    564c:	10 40 01 29 	ld32	r9,r9
    5650:	00 40 01 10 	mull	r8,r16
    5654:	20 70 03 e2 	movepc	rret,8
    5658:	14 30 ea 6e 	br	10 <compare>,#al
    565c:	00 10 00 41 	add	r2,1
    5660:	0d 40 d1 1c 	wl16	r8,0x69c
    5664:	0d 60 01 03 	wh16	r8,0x3
    5668:	10 40 01 08 	ld32	r8,r8
    566c:	0d 42 f2 18 	wl16	r16,0x1798
    5670:	0d 60 02 03 	wh16	r16,0x3
    5674:	10 40 02 10 	ld32	r16,r16
    5678:	0d 45 11 34 	wl16	r9,0x2894
    567c:	0d 60 01 23 	wh16	r9,0x3
    5680:	10 40 01 29 	ld32	r9,r9
    5684:	00 40 01 10 	mull	r8,r16
    5688:	20 70 03 e2 	movepc	rret,8
    568c:	14 30 ea 61 	br	10 <compare>,#al
    5690:	00 10 00 41 	add	r2,1
    5694:	0d 40 d5 00 	wl16	r8,0x6a0
    5698:	0d 60 01 03 	wh16	r8,0x3
    569c:	10 40 01 08 	ld32	r8,r8
    56a0:	0d 42 f2 1c 	wl16	r16,0x179c
    56a4:	0d 60 02 03 	wh16	r16,0x3
    56a8:	10 40 02 10 	ld32	r16,r16
    56ac:	0d 45 11 38 	wl16	r9,0x2898
    56b0:	0d 60 01 23 	wh16	r9,0x3
    56b4:	10 40 01 29 	ld32	r9,r9
    56b8:	00 40 01 10 	mull	r8,r16
    56bc:	20 70 03 e2 	movepc	rret,8
    56c0:	14 30 ea 54 	br	10 <compare>,#al
    56c4:	00 10 00 41 	add	r2,1
    56c8:	0d 40 d5 04 	wl16	r8,0x6a4
    56cc:	0d 60 01 03 	wh16	r8,0x3
    56d0:	10 40 01 08 	ld32	r8,r8
    56d4:	0d 42 f6 00 	wl16	r16,0x17a0
    56d8:	0d 60 02 03 	wh16	r16,0x3
    56dc:	10 40 02 10 	ld32	r16,r16
    56e0:	0d 45 11 3c 	wl16	r9,0x289c
    56e4:	0d 60 01 23 	wh16	r9,0x3
    56e8:	10 40 01 29 	ld32	r9,r9
    56ec:	00 40 01 10 	mull	r8,r16
    56f0:	20 70 03 e2 	movepc	rret,8
    56f4:	14 30 ea 47 	br	10 <compare>,#al
    56f8:	00 10 00 41 	add	r2,1
    56fc:	0d 40 d5 08 	wl16	r8,0x6a8
    5700:	0d 60 01 03 	wh16	r8,0x3
    5704:	10 40 01 08 	ld32	r8,r8
    5708:	0d 42 f6 04 	wl16	r16,0x17a4
    570c:	0d 60 02 03 	wh16	r16,0x3
    5710:	10 40 02 10 	ld32	r16,r16
    5714:	0d 45 15 20 	wl16	r9,0x28a0
    5718:	0d 60 01 23 	wh16	r9,0x3
    571c:	10 40 01 29 	ld32	r9,r9
    5720:	00 40 01 10 	mull	r8,r16
    5724:	20 70 03 e2 	movepc	rret,8
    5728:	14 30 ea 3a 	br	10 <compare>,#al
    572c:	00 10 00 41 	add	r2,1
    5730:	0d 40 d5 0c 	wl16	r8,0x6ac
    5734:	0d 60 01 03 	wh16	r8,0x3
    5738:	10 40 01 08 	ld32	r8,r8
    573c:	0d 42 f6 08 	wl16	r16,0x17a8
    5740:	0d 60 02 03 	wh16	r16,0x3
    5744:	10 40 02 10 	ld32	r16,r16
    5748:	0d 45 15 24 	wl16	r9,0x28a4
    574c:	0d 60 01 23 	wh16	r9,0x3
    5750:	10 40 01 29 	ld32	r9,r9
    5754:	00 40 01 10 	mull	r8,r16
    5758:	20 70 03 e2 	movepc	rret,8
    575c:	14 30 ea 2d 	br	10 <compare>,#al
    5760:	00 10 00 41 	add	r2,1
    5764:	0d 40 d5 10 	wl16	r8,0x6b0
    5768:	0d 60 01 03 	wh16	r8,0x3
    576c:	10 40 01 08 	ld32	r8,r8
    5770:	0d 42 f6 0c 	wl16	r16,0x17ac
    5774:	0d 60 02 03 	wh16	r16,0x3
    5778:	10 40 02 10 	ld32	r16,r16
    577c:	0d 45 15 28 	wl16	r9,0x28a8
    5780:	0d 60 01 23 	wh16	r9,0x3
    5784:	10 40 01 29 	ld32	r9,r9
    5788:	00 40 01 10 	mull	r8,r16
    578c:	20 70 03 e2 	movepc	rret,8
    5790:	14 30 ea 20 	br	10 <compare>,#al
    5794:	00 10 00 41 	add	r2,1
    5798:	0d 40 d5 14 	wl16	r8,0x6b4
    579c:	0d 60 01 03 	wh16	r8,0x3
    57a0:	10 40 01 08 	ld32	r8,r8
    57a4:	0d 42 f6 10 	wl16	r16,0x17b0
    57a8:	0d 60 02 03 	wh16	r16,0x3
    57ac:	10 40 02 10 	ld32	r16,r16
    57b0:	0d 45 15 2c 	wl16	r9,0x28ac
    57b4:	0d 60 01 23 	wh16	r9,0x3
    57b8:	10 40 01 29 	ld32	r9,r9
    57bc:	00 40 01 10 	mull	r8,r16
    57c0:	20 70 03 e2 	movepc	rret,8
    57c4:	14 30 ea 13 	br	10 <compare>,#al
    57c8:	00 10 00 41 	add	r2,1
    57cc:	0d 40 d5 18 	wl16	r8,0x6b8
    57d0:	0d 60 01 03 	wh16	r8,0x3
    57d4:	10 40 01 08 	ld32	r8,r8
    57d8:	0d 42 f6 14 	wl16	r16,0x17b4
    57dc:	0d 60 02 03 	wh16	r16,0x3
    57e0:	10 40 02 10 	ld32	r16,r16
    57e4:	0d 45 15 30 	wl16	r9,0x28b0
    57e8:	0d 60 01 23 	wh16	r9,0x3
    57ec:	10 40 01 29 	ld32	r9,r9
    57f0:	00 40 01 10 	mull	r8,r16
    57f4:	20 70 03 e2 	movepc	rret,8
    57f8:	14 30 ea 06 	br	10 <compare>,#al
    57fc:	00 10 00 41 	add	r2,1
    5800:	0d 40 d5 1c 	wl16	r8,0x6bc
    5804:	0d 60 01 03 	wh16	r8,0x3
    5808:	10 40 01 08 	ld32	r8,r8
    580c:	0d 42 f6 18 	wl16	r16,0x17b8
    5810:	0d 60 02 03 	wh16	r16,0x3
    5814:	10 40 02 10 	ld32	r16,r16
    5818:	0d 45 15 34 	wl16	r9,0x28b4
    581c:	0d 60 01 23 	wh16	r9,0x3
    5820:	10 40 01 29 	ld32	r9,r9
    5824:	00 40 01 10 	mull	r8,r16
    5828:	20 70 03 e2 	movepc	rret,8
    582c:	14 30 e9 f9 	br	10 <compare>,#al
    5830:	00 10 00 41 	add	r2,1
    5834:	0d 40 d9 00 	wl16	r8,0x6c0
    5838:	0d 60 01 03 	wh16	r8,0x3
    583c:	10 40 01 08 	ld32	r8,r8
    5840:	0d 42 f6 1c 	wl16	r16,0x17bc
    5844:	0d 60 02 03 	wh16	r16,0x3
    5848:	10 40 02 10 	ld32	r16,r16
    584c:	0d 45 15 38 	wl16	r9,0x28b8
    5850:	0d 60 01 23 	wh16	r9,0x3
    5854:	10 40 01 29 	ld32	r9,r9
    5858:	00 40 01 10 	mull	r8,r16
    585c:	20 70 03 e2 	movepc	rret,8
    5860:	14 30 e9 ec 	br	10 <compare>,#al
    5864:	00 10 00 41 	add	r2,1
    5868:	0d 40 d9 04 	wl16	r8,0x6c4
    586c:	0d 60 01 03 	wh16	r8,0x3
    5870:	10 40 01 08 	ld32	r8,r8
    5874:	0d 42 fa 00 	wl16	r16,0x17c0
    5878:	0d 60 02 03 	wh16	r16,0x3
    587c:	10 40 02 10 	ld32	r16,r16
    5880:	0d 45 15 3c 	wl16	r9,0x28bc
    5884:	0d 60 01 23 	wh16	r9,0x3
    5888:	10 40 01 29 	ld32	r9,r9
    588c:	00 40 01 10 	mull	r8,r16
    5890:	20 70 03 e2 	movepc	rret,8
    5894:	14 30 e9 df 	br	10 <compare>,#al
    5898:	00 10 00 41 	add	r2,1
    589c:	0d 40 d9 08 	wl16	r8,0x6c8
    58a0:	0d 60 01 03 	wh16	r8,0x3
    58a4:	10 40 01 08 	ld32	r8,r8
    58a8:	0d 42 fa 04 	wl16	r16,0x17c4
    58ac:	0d 60 02 03 	wh16	r16,0x3
    58b0:	10 40 02 10 	ld32	r16,r16
    58b4:	0d 45 19 20 	wl16	r9,0x28c0
    58b8:	0d 60 01 23 	wh16	r9,0x3
    58bc:	10 40 01 29 	ld32	r9,r9
    58c0:	00 40 01 10 	mull	r8,r16
    58c4:	20 70 03 e2 	movepc	rret,8
    58c8:	14 30 e9 d2 	br	10 <compare>,#al
    58cc:	00 10 00 41 	add	r2,1
    58d0:	0d 40 d9 0c 	wl16	r8,0x6cc
    58d4:	0d 60 01 03 	wh16	r8,0x3
    58d8:	10 40 01 08 	ld32	r8,r8
    58dc:	0d 42 fa 08 	wl16	r16,0x17c8
    58e0:	0d 60 02 03 	wh16	r16,0x3
    58e4:	10 40 02 10 	ld32	r16,r16
    58e8:	0d 45 19 24 	wl16	r9,0x28c4
    58ec:	0d 60 01 23 	wh16	r9,0x3
    58f0:	10 40 01 29 	ld32	r9,r9
    58f4:	00 40 01 10 	mull	r8,r16
    58f8:	20 70 03 e2 	movepc	rret,8
    58fc:	14 30 e9 c5 	br	10 <compare>,#al
    5900:	00 10 00 41 	add	r2,1
    5904:	0d 40 d9 10 	wl16	r8,0x6d0
    5908:	0d 60 01 03 	wh16	r8,0x3
    590c:	10 40 01 08 	ld32	r8,r8
    5910:	0d 42 fa 0c 	wl16	r16,0x17cc
    5914:	0d 60 02 03 	wh16	r16,0x3
    5918:	10 40 02 10 	ld32	r16,r16
    591c:	0d 45 19 28 	wl16	r9,0x28c8
    5920:	0d 60 01 23 	wh16	r9,0x3
    5924:	10 40 01 29 	ld32	r9,r9
    5928:	00 40 01 10 	mull	r8,r16
    592c:	20 70 03 e2 	movepc	rret,8
    5930:	14 30 e9 b8 	br	10 <compare>,#al
    5934:	00 10 00 41 	add	r2,1
    5938:	0d 40 d9 14 	wl16	r8,0x6d4
    593c:	0d 60 01 03 	wh16	r8,0x3
    5940:	10 40 01 08 	ld32	r8,r8
    5944:	0d 42 fa 10 	wl16	r16,0x17d0
    5948:	0d 60 02 03 	wh16	r16,0x3
    594c:	10 40 02 10 	ld32	r16,r16
    5950:	0d 45 19 2c 	wl16	r9,0x28cc
    5954:	0d 60 01 23 	wh16	r9,0x3
    5958:	10 40 01 29 	ld32	r9,r9
    595c:	00 40 01 10 	mull	r8,r16
    5960:	20 70 03 e2 	movepc	rret,8
    5964:	14 30 e9 ab 	br	10 <compare>,#al
    5968:	00 10 00 41 	add	r2,1
    596c:	0d 40 d9 18 	wl16	r8,0x6d8
    5970:	0d 60 01 03 	wh16	r8,0x3
    5974:	10 40 01 08 	ld32	r8,r8
    5978:	0d 42 fa 14 	wl16	r16,0x17d4
    597c:	0d 60 02 03 	wh16	r16,0x3
    5980:	10 40 02 10 	ld32	r16,r16
    5984:	0d 45 19 30 	wl16	r9,0x28d0
    5988:	0d 60 01 23 	wh16	r9,0x3
    598c:	10 40 01 29 	ld32	r9,r9
    5990:	00 40 01 10 	mull	r8,r16
    5994:	20 70 03 e2 	movepc	rret,8
    5998:	14 30 e9 9e 	br	10 <compare>,#al
    599c:	00 10 00 41 	add	r2,1
    59a0:	0d 40 d9 1c 	wl16	r8,0x6dc
    59a4:	0d 60 01 03 	wh16	r8,0x3
    59a8:	10 40 01 08 	ld32	r8,r8
    59ac:	0d 42 fa 18 	wl16	r16,0x17d8
    59b0:	0d 60 02 03 	wh16	r16,0x3
    59b4:	10 40 02 10 	ld32	r16,r16
    59b8:	0d 45 19 34 	wl16	r9,0x28d4
    59bc:	0d 60 01 23 	wh16	r9,0x3
    59c0:	10 40 01 29 	ld32	r9,r9
    59c4:	00 40 01 10 	mull	r8,r16
    59c8:	20 70 03 e2 	movepc	rret,8
    59cc:	14 30 e9 91 	br	10 <compare>,#al
    59d0:	00 10 00 41 	add	r2,1
    59d4:	0d 40 dd 00 	wl16	r8,0x6e0
    59d8:	0d 60 01 03 	wh16	r8,0x3
    59dc:	10 40 01 08 	ld32	r8,r8
    59e0:	0d 42 fa 1c 	wl16	r16,0x17dc
    59e4:	0d 60 02 03 	wh16	r16,0x3
    59e8:	10 40 02 10 	ld32	r16,r16
    59ec:	0d 45 19 38 	wl16	r9,0x28d8
    59f0:	0d 60 01 23 	wh16	r9,0x3
    59f4:	10 40 01 29 	ld32	r9,r9
    59f8:	00 40 01 10 	mull	r8,r16
    59fc:	20 70 03 e2 	movepc	rret,8
    5a00:	14 30 e9 84 	br	10 <compare>,#al
    5a04:	00 10 00 41 	add	r2,1
    5a08:	0d 40 dd 04 	wl16	r8,0x6e4
    5a0c:	0d 60 01 03 	wh16	r8,0x3
    5a10:	10 40 01 08 	ld32	r8,r8
    5a14:	0d 42 fe 00 	wl16	r16,0x17e0
    5a18:	0d 60 02 03 	wh16	r16,0x3
    5a1c:	10 40 02 10 	ld32	r16,r16
    5a20:	0d 45 19 3c 	wl16	r9,0x28dc
    5a24:	0d 60 01 23 	wh16	r9,0x3
    5a28:	10 40 01 29 	ld32	r9,r9
    5a2c:	00 40 01 10 	mull	r8,r16
    5a30:	20 70 03 e2 	movepc	rret,8
    5a34:	14 30 e9 77 	br	10 <compare>,#al
    5a38:	00 10 00 41 	add	r2,1
    5a3c:	0d 40 dd 08 	wl16	r8,0x6e8
    5a40:	0d 60 01 03 	wh16	r8,0x3
    5a44:	10 40 01 08 	ld32	r8,r8
    5a48:	0d 42 fe 04 	wl16	r16,0x17e4
    5a4c:	0d 60 02 03 	wh16	r16,0x3
    5a50:	10 40 02 10 	ld32	r16,r16
    5a54:	0d 45 1d 20 	wl16	r9,0x28e0
    5a58:	0d 60 01 23 	wh16	r9,0x3
    5a5c:	10 40 01 29 	ld32	r9,r9
    5a60:	00 40 01 10 	mull	r8,r16
    5a64:	20 70 03 e2 	movepc	rret,8
    5a68:	14 30 e9 6a 	br	10 <compare>,#al
    5a6c:	00 10 00 41 	add	r2,1
    5a70:	0d 40 dd 0c 	wl16	r8,0x6ec
    5a74:	0d 60 01 03 	wh16	r8,0x3
    5a78:	10 40 01 08 	ld32	r8,r8
    5a7c:	0d 42 fe 08 	wl16	r16,0x17e8
    5a80:	0d 60 02 03 	wh16	r16,0x3
    5a84:	10 40 02 10 	ld32	r16,r16
    5a88:	0d 45 1d 24 	wl16	r9,0x28e4
    5a8c:	0d 60 01 23 	wh16	r9,0x3
    5a90:	10 40 01 29 	ld32	r9,r9
    5a94:	00 40 01 10 	mull	r8,r16
    5a98:	20 70 03 e2 	movepc	rret,8
    5a9c:	14 30 e9 5d 	br	10 <compare>,#al
    5aa0:	00 10 00 41 	add	r2,1
    5aa4:	0d 40 dd 10 	wl16	r8,0x6f0
    5aa8:	0d 60 01 03 	wh16	r8,0x3
    5aac:	10 40 01 08 	ld32	r8,r8
    5ab0:	0d 42 fe 0c 	wl16	r16,0x17ec
    5ab4:	0d 60 02 03 	wh16	r16,0x3
    5ab8:	10 40 02 10 	ld32	r16,r16
    5abc:	0d 45 1d 28 	wl16	r9,0x28e8
    5ac0:	0d 60 01 23 	wh16	r9,0x3
    5ac4:	10 40 01 29 	ld32	r9,r9
    5ac8:	00 40 01 10 	mull	r8,r16
    5acc:	20 70 03 e2 	movepc	rret,8
    5ad0:	14 30 e9 50 	br	10 <compare>,#al
    5ad4:	00 10 00 41 	add	r2,1
    5ad8:	0d 40 dd 14 	wl16	r8,0x6f4
    5adc:	0d 60 01 03 	wh16	r8,0x3
    5ae0:	10 40 01 08 	ld32	r8,r8
    5ae4:	0d 42 fe 10 	wl16	r16,0x17f0
    5ae8:	0d 60 02 03 	wh16	r16,0x3
    5aec:	10 40 02 10 	ld32	r16,r16
    5af0:	0d 45 1d 2c 	wl16	r9,0x28ec
    5af4:	0d 60 01 23 	wh16	r9,0x3
    5af8:	10 40 01 29 	ld32	r9,r9
    5afc:	00 40 01 10 	mull	r8,r16
    5b00:	20 70 03 e2 	movepc	rret,8
    5b04:	14 30 e9 43 	br	10 <compare>,#al
    5b08:	00 10 00 41 	add	r2,1
    5b0c:	0d 40 dd 18 	wl16	r8,0x6f8
    5b10:	0d 60 01 03 	wh16	r8,0x3
    5b14:	10 40 01 08 	ld32	r8,r8
    5b18:	0d 42 fe 14 	wl16	r16,0x17f4
    5b1c:	0d 60 02 03 	wh16	r16,0x3
    5b20:	10 40 02 10 	ld32	r16,r16
    5b24:	0d 45 1d 30 	wl16	r9,0x28f0
    5b28:	0d 60 01 23 	wh16	r9,0x3
    5b2c:	10 40 01 29 	ld32	r9,r9
    5b30:	00 40 01 10 	mull	r8,r16
    5b34:	20 70 03 e2 	movepc	rret,8
    5b38:	14 30 e9 36 	br	10 <compare>,#al
    5b3c:	00 10 00 41 	add	r2,1
    5b40:	0d 40 dd 1c 	wl16	r8,0x6fc
    5b44:	0d 60 01 03 	wh16	r8,0x3
    5b48:	10 40 01 08 	ld32	r8,r8
    5b4c:	0d 42 fe 18 	wl16	r16,0x17f8
    5b50:	0d 60 02 03 	wh16	r16,0x3
    5b54:	10 40 02 10 	ld32	r16,r16
    5b58:	0d 45 1d 34 	wl16	r9,0x28f4
    5b5c:	0d 60 01 23 	wh16	r9,0x3
    5b60:	10 40 01 29 	ld32	r9,r9
    5b64:	00 40 01 10 	mull	r8,r16
    5b68:	20 70 03 e2 	movepc	rret,8
    5b6c:	14 30 e9 29 	br	10 <compare>,#al
    5b70:	00 10 00 41 	add	r2,1
    5b74:	0d 40 e1 00 	wl16	r8,0x700
    5b78:	0d 60 01 03 	wh16	r8,0x3
    5b7c:	10 40 01 08 	ld32	r8,r8
    5b80:	0d 42 fe 1c 	wl16	r16,0x17fc
    5b84:	0d 60 02 03 	wh16	r16,0x3
    5b88:	10 40 02 10 	ld32	r16,r16
    5b8c:	0d 45 1d 38 	wl16	r9,0x28f8
    5b90:	0d 60 01 23 	wh16	r9,0x3
    5b94:	10 40 01 29 	ld32	r9,r9
    5b98:	00 40 01 10 	mull	r8,r16
    5b9c:	20 70 03 e2 	movepc	rret,8
    5ba0:	14 30 e9 1c 	br	10 <compare>,#al
    5ba4:	00 10 00 41 	add	r2,1
    5ba8:	0d 40 e1 04 	wl16	r8,0x704
    5bac:	0d 60 01 03 	wh16	r8,0x3
    5bb0:	10 40 01 08 	ld32	r8,r8
    5bb4:	0d 43 02 00 	wl16	r16,0x1800
    5bb8:	0d 60 02 03 	wh16	r16,0x3
    5bbc:	10 40 02 10 	ld32	r16,r16
    5bc0:	0d 45 1d 3c 	wl16	r9,0x28fc
    5bc4:	0d 60 01 23 	wh16	r9,0x3
    5bc8:	10 40 01 29 	ld32	r9,r9
    5bcc:	00 40 01 10 	mull	r8,r16
    5bd0:	20 70 03 e2 	movepc	rret,8
    5bd4:	14 30 e9 0f 	br	10 <compare>,#al
    5bd8:	00 10 00 41 	add	r2,1
    5bdc:	0d 40 e1 08 	wl16	r8,0x708
    5be0:	0d 60 01 03 	wh16	r8,0x3
    5be4:	10 40 01 08 	ld32	r8,r8
    5be8:	0d 43 02 04 	wl16	r16,0x1804
    5bec:	0d 60 02 03 	wh16	r16,0x3
    5bf0:	10 40 02 10 	ld32	r16,r16
    5bf4:	0d 45 21 20 	wl16	r9,0x2900
    5bf8:	0d 60 01 23 	wh16	r9,0x3
    5bfc:	10 40 01 29 	ld32	r9,r9
    5c00:	00 40 01 10 	mull	r8,r16
    5c04:	20 70 03 e2 	movepc	rret,8
    5c08:	14 30 e9 02 	br	10 <compare>,#al
    5c0c:	00 10 00 41 	add	r2,1
    5c10:	0d 40 e1 0c 	wl16	r8,0x70c
    5c14:	0d 60 01 03 	wh16	r8,0x3
    5c18:	10 40 01 08 	ld32	r8,r8
    5c1c:	0d 43 02 08 	wl16	r16,0x1808
    5c20:	0d 60 02 03 	wh16	r16,0x3
    5c24:	10 40 02 10 	ld32	r16,r16
    5c28:	0d 45 21 24 	wl16	r9,0x2904
    5c2c:	0d 60 01 23 	wh16	r9,0x3
    5c30:	10 40 01 29 	ld32	r9,r9
    5c34:	00 40 01 10 	mull	r8,r16
    5c38:	20 70 03 e2 	movepc	rret,8
    5c3c:	14 30 e8 f5 	br	10 <compare>,#al
    5c40:	00 10 00 41 	add	r2,1
    5c44:	0d 40 e1 10 	wl16	r8,0x710
    5c48:	0d 60 01 03 	wh16	r8,0x3
    5c4c:	10 40 01 08 	ld32	r8,r8
    5c50:	0d 43 02 0c 	wl16	r16,0x180c
    5c54:	0d 60 02 03 	wh16	r16,0x3
    5c58:	10 40 02 10 	ld32	r16,r16
    5c5c:	0d 45 21 28 	wl16	r9,0x2908
    5c60:	0d 60 01 23 	wh16	r9,0x3
    5c64:	10 40 01 29 	ld32	r9,r9
    5c68:	00 40 01 10 	mull	r8,r16
    5c6c:	20 70 03 e2 	movepc	rret,8
    5c70:	14 30 e8 e8 	br	10 <compare>,#al
    5c74:	00 10 00 41 	add	r2,1
    5c78:	0d 40 e1 14 	wl16	r8,0x714
    5c7c:	0d 60 01 03 	wh16	r8,0x3
    5c80:	10 40 01 08 	ld32	r8,r8
    5c84:	0d 43 02 10 	wl16	r16,0x1810
    5c88:	0d 60 02 03 	wh16	r16,0x3
    5c8c:	10 40 02 10 	ld32	r16,r16
    5c90:	0d 45 21 2c 	wl16	r9,0x290c
    5c94:	0d 60 01 23 	wh16	r9,0x3
    5c98:	10 40 01 29 	ld32	r9,r9
    5c9c:	00 40 01 10 	mull	r8,r16
    5ca0:	20 70 03 e2 	movepc	rret,8
    5ca4:	14 30 e8 db 	br	10 <compare>,#al
    5ca8:	00 10 00 41 	add	r2,1
    5cac:	0d 40 e1 18 	wl16	r8,0x718
    5cb0:	0d 60 01 03 	wh16	r8,0x3
    5cb4:	10 40 01 08 	ld32	r8,r8
    5cb8:	0d 43 02 14 	wl16	r16,0x1814
    5cbc:	0d 60 02 03 	wh16	r16,0x3
    5cc0:	10 40 02 10 	ld32	r16,r16
    5cc4:	0d 45 21 30 	wl16	r9,0x2910
    5cc8:	0d 60 01 23 	wh16	r9,0x3
    5ccc:	10 40 01 29 	ld32	r9,r9
    5cd0:	00 40 01 10 	mull	r8,r16
    5cd4:	20 70 03 e2 	movepc	rret,8
    5cd8:	14 30 e8 ce 	br	10 <compare>,#al
    5cdc:	00 10 00 41 	add	r2,1
    5ce0:	0d 40 e1 1c 	wl16	r8,0x71c
    5ce4:	0d 60 01 03 	wh16	r8,0x3
    5ce8:	10 40 01 08 	ld32	r8,r8
    5cec:	0d 43 02 18 	wl16	r16,0x1818
    5cf0:	0d 60 02 03 	wh16	r16,0x3
    5cf4:	10 40 02 10 	ld32	r16,r16
    5cf8:	0d 45 21 34 	wl16	r9,0x2914
    5cfc:	0d 60 01 23 	wh16	r9,0x3
    5d00:	10 40 01 29 	ld32	r9,r9
    5d04:	00 40 01 10 	mull	r8,r16
    5d08:	20 70 03 e2 	movepc	rret,8
    5d0c:	14 30 e8 c1 	br	10 <compare>,#al
    5d10:	00 10 00 41 	add	r2,1
    5d14:	0d 40 e5 00 	wl16	r8,0x720
    5d18:	0d 60 01 03 	wh16	r8,0x3
    5d1c:	10 40 01 08 	ld32	r8,r8
    5d20:	0d 43 02 1c 	wl16	r16,0x181c
    5d24:	0d 60 02 03 	wh16	r16,0x3
    5d28:	10 40 02 10 	ld32	r16,r16
    5d2c:	0d 45 21 38 	wl16	r9,0x2918
    5d30:	0d 60 01 23 	wh16	r9,0x3
    5d34:	10 40 01 29 	ld32	r9,r9
    5d38:	00 40 01 10 	mull	r8,r16
    5d3c:	20 70 03 e2 	movepc	rret,8
    5d40:	14 30 e8 b4 	br	10 <compare>,#al
    5d44:	00 10 00 41 	add	r2,1
    5d48:	0d 40 e5 04 	wl16	r8,0x724
    5d4c:	0d 60 01 03 	wh16	r8,0x3
    5d50:	10 40 01 08 	ld32	r8,r8
    5d54:	0d 43 06 00 	wl16	r16,0x1820
    5d58:	0d 60 02 03 	wh16	r16,0x3
    5d5c:	10 40 02 10 	ld32	r16,r16
    5d60:	0d 45 21 3c 	wl16	r9,0x291c
    5d64:	0d 60 01 23 	wh16	r9,0x3
    5d68:	10 40 01 29 	ld32	r9,r9
    5d6c:	00 40 01 10 	mull	r8,r16
    5d70:	20 70 03 e2 	movepc	rret,8
    5d74:	14 30 e8 a7 	br	10 <compare>,#al
    5d78:	00 10 00 41 	add	r2,1
    5d7c:	0d 40 e5 08 	wl16	r8,0x728
    5d80:	0d 60 01 03 	wh16	r8,0x3
    5d84:	10 40 01 08 	ld32	r8,r8
    5d88:	0d 43 06 04 	wl16	r16,0x1824
    5d8c:	0d 60 02 03 	wh16	r16,0x3
    5d90:	10 40 02 10 	ld32	r16,r16
    5d94:	0d 45 25 20 	wl16	r9,0x2920
    5d98:	0d 60 01 23 	wh16	r9,0x3
    5d9c:	10 40 01 29 	ld32	r9,r9
    5da0:	00 40 01 10 	mull	r8,r16
    5da4:	20 70 03 e2 	movepc	rret,8
    5da8:	14 30 e8 9a 	br	10 <compare>,#al
    5dac:	00 10 00 41 	add	r2,1
    5db0:	0d 40 e5 0c 	wl16	r8,0x72c
    5db4:	0d 60 01 03 	wh16	r8,0x3
    5db8:	10 40 01 08 	ld32	r8,r8
    5dbc:	0d 43 06 08 	wl16	r16,0x1828
    5dc0:	0d 60 02 03 	wh16	r16,0x3
    5dc4:	10 40 02 10 	ld32	r16,r16
    5dc8:	0d 45 25 24 	wl16	r9,0x2924
    5dcc:	0d 60 01 23 	wh16	r9,0x3
    5dd0:	10 40 01 29 	ld32	r9,r9
    5dd4:	00 40 01 10 	mull	r8,r16
    5dd8:	20 70 03 e2 	movepc	rret,8
    5ddc:	14 30 e8 8d 	br	10 <compare>,#al
    5de0:	00 10 00 41 	add	r2,1
    5de4:	0d 40 e5 10 	wl16	r8,0x730
    5de8:	0d 60 01 03 	wh16	r8,0x3
    5dec:	10 40 01 08 	ld32	r8,r8
    5df0:	0d 43 06 0c 	wl16	r16,0x182c
    5df4:	0d 60 02 03 	wh16	r16,0x3
    5df8:	10 40 02 10 	ld32	r16,r16
    5dfc:	0d 45 25 28 	wl16	r9,0x2928
    5e00:	0d 60 01 23 	wh16	r9,0x3
    5e04:	10 40 01 29 	ld32	r9,r9
    5e08:	00 40 01 10 	mull	r8,r16
    5e0c:	20 70 03 e2 	movepc	rret,8
    5e10:	14 30 e8 80 	br	10 <compare>,#al
    5e14:	00 10 00 41 	add	r2,1
    5e18:	0d 40 e5 14 	wl16	r8,0x734
    5e1c:	0d 60 01 03 	wh16	r8,0x3
    5e20:	10 40 01 08 	ld32	r8,r8
    5e24:	0d 43 06 10 	wl16	r16,0x1830
    5e28:	0d 60 02 03 	wh16	r16,0x3
    5e2c:	10 40 02 10 	ld32	r16,r16
    5e30:	0d 45 25 2c 	wl16	r9,0x292c
    5e34:	0d 60 01 23 	wh16	r9,0x3
    5e38:	10 40 01 29 	ld32	r9,r9
    5e3c:	00 40 01 10 	mull	r8,r16
    5e40:	20 70 03 e2 	movepc	rret,8
    5e44:	14 30 e8 73 	br	10 <compare>,#al
    5e48:	00 10 00 41 	add	r2,1
    5e4c:	0d 40 e5 18 	wl16	r8,0x738
    5e50:	0d 60 01 03 	wh16	r8,0x3
    5e54:	10 40 01 08 	ld32	r8,r8
    5e58:	0d 43 06 14 	wl16	r16,0x1834
    5e5c:	0d 60 02 03 	wh16	r16,0x3
    5e60:	10 40 02 10 	ld32	r16,r16
    5e64:	0d 45 25 30 	wl16	r9,0x2930
    5e68:	0d 60 01 23 	wh16	r9,0x3
    5e6c:	10 40 01 29 	ld32	r9,r9
    5e70:	00 40 01 10 	mull	r8,r16
    5e74:	20 70 03 e2 	movepc	rret,8
    5e78:	14 30 e8 66 	br	10 <compare>,#al
    5e7c:	00 10 00 41 	add	r2,1
    5e80:	0d 40 e5 1c 	wl16	r8,0x73c
    5e84:	0d 60 01 03 	wh16	r8,0x3
    5e88:	10 40 01 08 	ld32	r8,r8
    5e8c:	0d 43 06 18 	wl16	r16,0x1838
    5e90:	0d 60 02 03 	wh16	r16,0x3
    5e94:	10 40 02 10 	ld32	r16,r16
    5e98:	0d 45 25 34 	wl16	r9,0x2934
    5e9c:	0d 60 01 23 	wh16	r9,0x3
    5ea0:	10 40 01 29 	ld32	r9,r9
    5ea4:	00 40 01 10 	mull	r8,r16
    5ea8:	20 70 03 e2 	movepc	rret,8
    5eac:	14 30 e8 59 	br	10 <compare>,#al
    5eb0:	00 10 00 41 	add	r2,1
    5eb4:	0d 40 e9 00 	wl16	r8,0x740
    5eb8:	0d 60 01 03 	wh16	r8,0x3
    5ebc:	10 40 01 08 	ld32	r8,r8
    5ec0:	0d 43 06 1c 	wl16	r16,0x183c
    5ec4:	0d 60 02 03 	wh16	r16,0x3
    5ec8:	10 40 02 10 	ld32	r16,r16
    5ecc:	0d 45 25 38 	wl16	r9,0x2938
    5ed0:	0d 60 01 23 	wh16	r9,0x3
    5ed4:	10 40 01 29 	ld32	r9,r9
    5ed8:	00 40 01 10 	mull	r8,r16
    5edc:	20 70 03 e2 	movepc	rret,8
    5ee0:	14 30 e8 4c 	br	10 <compare>,#al
    5ee4:	00 10 00 41 	add	r2,1
    5ee8:	0d 40 e9 04 	wl16	r8,0x744
    5eec:	0d 60 01 03 	wh16	r8,0x3
    5ef0:	10 40 01 08 	ld32	r8,r8
    5ef4:	0d 43 0a 00 	wl16	r16,0x1840
    5ef8:	0d 60 02 03 	wh16	r16,0x3
    5efc:	10 40 02 10 	ld32	r16,r16
    5f00:	0d 45 25 3c 	wl16	r9,0x293c
    5f04:	0d 60 01 23 	wh16	r9,0x3
    5f08:	10 40 01 29 	ld32	r9,r9
    5f0c:	00 40 01 10 	mull	r8,r16
    5f10:	20 70 03 e2 	movepc	rret,8
    5f14:	14 30 e8 3f 	br	10 <compare>,#al
    5f18:	00 10 00 41 	add	r2,1
    5f1c:	0d 40 e9 08 	wl16	r8,0x748
    5f20:	0d 60 01 03 	wh16	r8,0x3
    5f24:	10 40 01 08 	ld32	r8,r8
    5f28:	0d 43 0a 04 	wl16	r16,0x1844
    5f2c:	0d 60 02 03 	wh16	r16,0x3
    5f30:	10 40 02 10 	ld32	r16,r16
    5f34:	0d 45 29 20 	wl16	r9,0x2940
    5f38:	0d 60 01 23 	wh16	r9,0x3
    5f3c:	10 40 01 29 	ld32	r9,r9
    5f40:	00 40 01 10 	mull	r8,r16
    5f44:	20 70 03 e2 	movepc	rret,8
    5f48:	14 30 e8 32 	br	10 <compare>,#al
    5f4c:	00 10 00 41 	add	r2,1
    5f50:	0d 40 e9 0c 	wl16	r8,0x74c
    5f54:	0d 60 01 03 	wh16	r8,0x3
    5f58:	10 40 01 08 	ld32	r8,r8
    5f5c:	0d 43 0a 08 	wl16	r16,0x1848
    5f60:	0d 60 02 03 	wh16	r16,0x3
    5f64:	10 40 02 10 	ld32	r16,r16
    5f68:	0d 45 29 24 	wl16	r9,0x2944
    5f6c:	0d 60 01 23 	wh16	r9,0x3
    5f70:	10 40 01 29 	ld32	r9,r9
    5f74:	00 40 01 10 	mull	r8,r16
    5f78:	20 70 03 e2 	movepc	rret,8
    5f7c:	14 30 e8 25 	br	10 <compare>,#al
    5f80:	00 10 00 41 	add	r2,1
    5f84:	0d 40 e9 10 	wl16	r8,0x750
    5f88:	0d 60 01 03 	wh16	r8,0x3
    5f8c:	10 40 01 08 	ld32	r8,r8
    5f90:	0d 43 0a 0c 	wl16	r16,0x184c
    5f94:	0d 60 02 03 	wh16	r16,0x3
    5f98:	10 40 02 10 	ld32	r16,r16
    5f9c:	0d 45 29 28 	wl16	r9,0x2948
    5fa0:	0d 60 01 23 	wh16	r9,0x3
    5fa4:	10 40 01 29 	ld32	r9,r9
    5fa8:	00 40 01 10 	mull	r8,r16
    5fac:	20 70 03 e2 	movepc	rret,8
    5fb0:	14 30 e8 18 	br	10 <compare>,#al
    5fb4:	00 10 00 41 	add	r2,1
    5fb8:	0d 40 e9 14 	wl16	r8,0x754
    5fbc:	0d 60 01 03 	wh16	r8,0x3
    5fc0:	10 40 01 08 	ld32	r8,r8
    5fc4:	0d 43 0a 10 	wl16	r16,0x1850
    5fc8:	0d 60 02 03 	wh16	r16,0x3
    5fcc:	10 40 02 10 	ld32	r16,r16
    5fd0:	0d 45 29 2c 	wl16	r9,0x294c
    5fd4:	0d 60 01 23 	wh16	r9,0x3
    5fd8:	10 40 01 29 	ld32	r9,r9
    5fdc:	00 40 01 10 	mull	r8,r16
    5fe0:	20 70 03 e2 	movepc	rret,8
    5fe4:	14 30 e8 0b 	br	10 <compare>,#al
    5fe8:	00 10 00 41 	add	r2,1
    5fec:	0d 40 e9 18 	wl16	r8,0x758
    5ff0:	0d 60 01 03 	wh16	r8,0x3
    5ff4:	10 40 01 08 	ld32	r8,r8
    5ff8:	0d 43 0a 14 	wl16	r16,0x1854
    5ffc:	0d 60 02 03 	wh16	r16,0x3
    6000:	10 40 02 10 	ld32	r16,r16
    6004:	0d 45 29 30 	wl16	r9,0x2950
    6008:	0d 60 01 23 	wh16	r9,0x3
    600c:	10 40 01 29 	ld32	r9,r9
    6010:	00 40 01 10 	mull	r8,r16
    6014:	20 70 03 e2 	movepc	rret,8
    6018:	14 30 e7 fe 	br	10 <compare>,#al
    601c:	00 10 00 41 	add	r2,1
    6020:	0d 40 e9 1c 	wl16	r8,0x75c
    6024:	0d 60 01 03 	wh16	r8,0x3
    6028:	10 40 01 08 	ld32	r8,r8
    602c:	0d 43 0a 18 	wl16	r16,0x1858
    6030:	0d 60 02 03 	wh16	r16,0x3
    6034:	10 40 02 10 	ld32	r16,r16
    6038:	0d 45 29 34 	wl16	r9,0x2954
    603c:	0d 60 01 23 	wh16	r9,0x3
    6040:	10 40 01 29 	ld32	r9,r9
    6044:	00 40 01 10 	mull	r8,r16
    6048:	20 70 03 e2 	movepc	rret,8
    604c:	14 30 e7 f1 	br	10 <compare>,#al
    6050:	00 10 00 41 	add	r2,1
    6054:	0d 40 ed 00 	wl16	r8,0x760
    6058:	0d 60 01 03 	wh16	r8,0x3
    605c:	10 40 01 08 	ld32	r8,r8
    6060:	0d 43 0a 1c 	wl16	r16,0x185c
    6064:	0d 60 02 03 	wh16	r16,0x3
    6068:	10 40 02 10 	ld32	r16,r16
    606c:	0d 45 29 38 	wl16	r9,0x2958
    6070:	0d 60 01 23 	wh16	r9,0x3
    6074:	10 40 01 29 	ld32	r9,r9
    6078:	00 40 01 10 	mull	r8,r16
    607c:	20 70 03 e2 	movepc	rret,8
    6080:	14 30 e7 e4 	br	10 <compare>,#al
    6084:	00 10 00 41 	add	r2,1
    6088:	0d 40 ed 04 	wl16	r8,0x764
    608c:	0d 60 01 03 	wh16	r8,0x3
    6090:	10 40 01 08 	ld32	r8,r8
    6094:	0d 43 0e 00 	wl16	r16,0x1860
    6098:	0d 60 02 03 	wh16	r16,0x3
    609c:	10 40 02 10 	ld32	r16,r16
    60a0:	0d 45 29 3c 	wl16	r9,0x295c
    60a4:	0d 60 01 23 	wh16	r9,0x3
    60a8:	10 40 01 29 	ld32	r9,r9
    60ac:	00 40 01 10 	mull	r8,r16
    60b0:	20 70 03 e2 	movepc	rret,8
    60b4:	14 30 e7 d7 	br	10 <compare>,#al
    60b8:	00 10 00 41 	add	r2,1
    60bc:	0d 40 ed 08 	wl16	r8,0x768
    60c0:	0d 60 01 03 	wh16	r8,0x3
    60c4:	10 40 01 08 	ld32	r8,r8
    60c8:	0d 43 0e 04 	wl16	r16,0x1864
    60cc:	0d 60 02 03 	wh16	r16,0x3
    60d0:	10 40 02 10 	ld32	r16,r16
    60d4:	0d 45 2d 20 	wl16	r9,0x2960
    60d8:	0d 60 01 23 	wh16	r9,0x3
    60dc:	10 40 01 29 	ld32	r9,r9
    60e0:	00 40 01 10 	mull	r8,r16
    60e4:	20 70 03 e2 	movepc	rret,8
    60e8:	14 30 e7 ca 	br	10 <compare>,#al
    60ec:	00 10 00 41 	add	r2,1
    60f0:	0d 40 ed 0c 	wl16	r8,0x76c
    60f4:	0d 60 01 03 	wh16	r8,0x3
    60f8:	10 40 01 08 	ld32	r8,r8
    60fc:	0d 43 0e 08 	wl16	r16,0x1868
    6100:	0d 60 02 03 	wh16	r16,0x3
    6104:	10 40 02 10 	ld32	r16,r16
    6108:	0d 45 2d 24 	wl16	r9,0x2964
    610c:	0d 60 01 23 	wh16	r9,0x3
    6110:	10 40 01 29 	ld32	r9,r9
    6114:	00 40 01 10 	mull	r8,r16
    6118:	20 70 03 e2 	movepc	rret,8
    611c:	14 30 e7 bd 	br	10 <compare>,#al
    6120:	00 10 00 41 	add	r2,1
    6124:	0d 40 ed 10 	wl16	r8,0x770
    6128:	0d 60 01 03 	wh16	r8,0x3
    612c:	10 40 01 08 	ld32	r8,r8
    6130:	0d 43 0e 0c 	wl16	r16,0x186c
    6134:	0d 60 02 03 	wh16	r16,0x3
    6138:	10 40 02 10 	ld32	r16,r16
    613c:	0d 45 2d 28 	wl16	r9,0x2968
    6140:	0d 60 01 23 	wh16	r9,0x3
    6144:	10 40 01 29 	ld32	r9,r9
    6148:	00 40 01 10 	mull	r8,r16
    614c:	20 70 03 e2 	movepc	rret,8
    6150:	14 30 e7 b0 	br	10 <compare>,#al
    6154:	00 10 00 41 	add	r2,1
    6158:	0d 40 ed 14 	wl16	r8,0x774
    615c:	0d 60 01 03 	wh16	r8,0x3
    6160:	10 40 01 08 	ld32	r8,r8
    6164:	0d 43 0e 10 	wl16	r16,0x1870
    6168:	0d 60 02 03 	wh16	r16,0x3
    616c:	10 40 02 10 	ld32	r16,r16
    6170:	0d 45 2d 2c 	wl16	r9,0x296c
    6174:	0d 60 01 23 	wh16	r9,0x3
    6178:	10 40 01 29 	ld32	r9,r9
    617c:	00 40 01 10 	mull	r8,r16
    6180:	20 70 03 e2 	movepc	rret,8
    6184:	14 30 e7 a3 	br	10 <compare>,#al
    6188:	00 10 00 41 	add	r2,1
    618c:	0d 40 ed 18 	wl16	r8,0x778
    6190:	0d 60 01 03 	wh16	r8,0x3
    6194:	10 40 01 08 	ld32	r8,r8
    6198:	0d 43 0e 14 	wl16	r16,0x1874
    619c:	0d 60 02 03 	wh16	r16,0x3
    61a0:	10 40 02 10 	ld32	r16,r16
    61a4:	0d 45 2d 30 	wl16	r9,0x2970
    61a8:	0d 60 01 23 	wh16	r9,0x3
    61ac:	10 40 01 29 	ld32	r9,r9
    61b0:	00 40 01 10 	mull	r8,r16
    61b4:	20 70 03 e2 	movepc	rret,8
    61b8:	14 30 e7 96 	br	10 <compare>,#al
    61bc:	00 10 00 41 	add	r2,1
    61c0:	0d 40 ed 1c 	wl16	r8,0x77c
    61c4:	0d 60 01 03 	wh16	r8,0x3
    61c8:	10 40 01 08 	ld32	r8,r8
    61cc:	0d 43 0e 18 	wl16	r16,0x1878
    61d0:	0d 60 02 03 	wh16	r16,0x3
    61d4:	10 40 02 10 	ld32	r16,r16
    61d8:	0d 45 2d 34 	wl16	r9,0x2974
    61dc:	0d 60 01 23 	wh16	r9,0x3
    61e0:	10 40 01 29 	ld32	r9,r9
    61e4:	00 40 01 10 	mull	r8,r16
    61e8:	20 70 03 e2 	movepc	rret,8
    61ec:	14 30 e7 89 	br	10 <compare>,#al
    61f0:	00 10 00 41 	add	r2,1
    61f4:	0d 40 f1 00 	wl16	r8,0x780
    61f8:	0d 60 01 03 	wh16	r8,0x3
    61fc:	10 40 01 08 	ld32	r8,r8
    6200:	0d 43 0e 1c 	wl16	r16,0x187c
    6204:	0d 60 02 03 	wh16	r16,0x3
    6208:	10 40 02 10 	ld32	r16,r16
    620c:	0d 45 2d 38 	wl16	r9,0x2978
    6210:	0d 60 01 23 	wh16	r9,0x3
    6214:	10 40 01 29 	ld32	r9,r9
    6218:	00 40 01 10 	mull	r8,r16
    621c:	20 70 03 e2 	movepc	rret,8
    6220:	14 30 e7 7c 	br	10 <compare>,#al
    6224:	00 10 00 41 	add	r2,1
    6228:	0d 40 f1 04 	wl16	r8,0x784
    622c:	0d 60 01 03 	wh16	r8,0x3
    6230:	10 40 01 08 	ld32	r8,r8
    6234:	0d 43 12 00 	wl16	r16,0x1880
    6238:	0d 60 02 03 	wh16	r16,0x3
    623c:	10 40 02 10 	ld32	r16,r16
    6240:	0d 45 2d 3c 	wl16	r9,0x297c
    6244:	0d 60 01 23 	wh16	r9,0x3
    6248:	10 40 01 29 	ld32	r9,r9
    624c:	00 40 01 10 	mull	r8,r16
    6250:	20 70 03 e2 	movepc	rret,8
    6254:	14 30 e7 6f 	br	10 <compare>,#al
    6258:	00 10 00 41 	add	r2,1
    625c:	0d 40 f1 08 	wl16	r8,0x788
    6260:	0d 60 01 03 	wh16	r8,0x3
    6264:	10 40 01 08 	ld32	r8,r8
    6268:	0d 43 12 04 	wl16	r16,0x1884
    626c:	0d 60 02 03 	wh16	r16,0x3
    6270:	10 40 02 10 	ld32	r16,r16
    6274:	0d 45 31 20 	wl16	r9,0x2980
    6278:	0d 60 01 23 	wh16	r9,0x3
    627c:	10 40 01 29 	ld32	r9,r9
    6280:	00 40 01 10 	mull	r8,r16
    6284:	20 70 03 e2 	movepc	rret,8
    6288:	14 30 e7 62 	br	10 <compare>,#al
    628c:	00 10 00 41 	add	r2,1
    6290:	0d 40 f1 0c 	wl16	r8,0x78c
    6294:	0d 60 01 03 	wh16	r8,0x3
    6298:	10 40 01 08 	ld32	r8,r8
    629c:	0d 43 12 08 	wl16	r16,0x1888
    62a0:	0d 60 02 03 	wh16	r16,0x3
    62a4:	10 40 02 10 	ld32	r16,r16
    62a8:	0d 45 31 24 	wl16	r9,0x2984
    62ac:	0d 60 01 23 	wh16	r9,0x3
    62b0:	10 40 01 29 	ld32	r9,r9
    62b4:	00 40 01 10 	mull	r8,r16
    62b8:	20 70 03 e2 	movepc	rret,8
    62bc:	14 30 e7 55 	br	10 <compare>,#al
    62c0:	00 10 00 41 	add	r2,1
    62c4:	0d 40 f1 10 	wl16	r8,0x790
    62c8:	0d 60 01 03 	wh16	r8,0x3
    62cc:	10 40 01 08 	ld32	r8,r8
    62d0:	0d 43 12 0c 	wl16	r16,0x188c
    62d4:	0d 60 02 03 	wh16	r16,0x3
    62d8:	10 40 02 10 	ld32	r16,r16
    62dc:	0d 45 31 28 	wl16	r9,0x2988
    62e0:	0d 60 01 23 	wh16	r9,0x3
    62e4:	10 40 01 29 	ld32	r9,r9
    62e8:	00 40 01 10 	mull	r8,r16
    62ec:	20 70 03 e2 	movepc	rret,8
    62f0:	14 30 e7 48 	br	10 <compare>,#al
    62f4:	00 10 00 41 	add	r2,1
    62f8:	0d 40 f1 14 	wl16	r8,0x794
    62fc:	0d 60 01 03 	wh16	r8,0x3
    6300:	10 40 01 08 	ld32	r8,r8
    6304:	0d 43 12 10 	wl16	r16,0x1890
    6308:	0d 60 02 03 	wh16	r16,0x3
    630c:	10 40 02 10 	ld32	r16,r16
    6310:	0d 45 31 2c 	wl16	r9,0x298c
    6314:	0d 60 01 23 	wh16	r9,0x3
    6318:	10 40 01 29 	ld32	r9,r9
    631c:	00 40 01 10 	mull	r8,r16
    6320:	20 70 03 e2 	movepc	rret,8
    6324:	14 30 e7 3b 	br	10 <compare>,#al
    6328:	00 10 00 41 	add	r2,1
    632c:	0d 40 f1 18 	wl16	r8,0x798
    6330:	0d 60 01 03 	wh16	r8,0x3
    6334:	10 40 01 08 	ld32	r8,r8
    6338:	0d 43 12 14 	wl16	r16,0x1894
    633c:	0d 60 02 03 	wh16	r16,0x3
    6340:	10 40 02 10 	ld32	r16,r16
    6344:	0d 45 31 30 	wl16	r9,0x2990
    6348:	0d 60 01 23 	wh16	r9,0x3
    634c:	10 40 01 29 	ld32	r9,r9
    6350:	00 40 01 10 	mull	r8,r16
    6354:	20 70 03 e2 	movepc	rret,8
    6358:	14 30 e7 2e 	br	10 <compare>,#al
    635c:	00 10 00 41 	add	r2,1
    6360:	0d 40 f1 1c 	wl16	r8,0x79c
    6364:	0d 60 01 03 	wh16	r8,0x3
    6368:	10 40 01 08 	ld32	r8,r8
    636c:	0d 43 12 18 	wl16	r16,0x1898
    6370:	0d 60 02 03 	wh16	r16,0x3
    6374:	10 40 02 10 	ld32	r16,r16
    6378:	0d 45 31 34 	wl16	r9,0x2994
    637c:	0d 60 01 23 	wh16	r9,0x3
    6380:	10 40 01 29 	ld32	r9,r9
    6384:	00 40 01 10 	mull	r8,r16
    6388:	20 70 03 e2 	movepc	rret,8
    638c:	14 30 e7 21 	br	10 <compare>,#al
    6390:	00 10 00 41 	add	r2,1
    6394:	0d 40 f5 00 	wl16	r8,0x7a0
    6398:	0d 60 01 03 	wh16	r8,0x3
    639c:	10 40 01 08 	ld32	r8,r8
    63a0:	0d 43 12 1c 	wl16	r16,0x189c
    63a4:	0d 60 02 03 	wh16	r16,0x3
    63a8:	10 40 02 10 	ld32	r16,r16
    63ac:	0d 45 31 38 	wl16	r9,0x2998
    63b0:	0d 60 01 23 	wh16	r9,0x3
    63b4:	10 40 01 29 	ld32	r9,r9
    63b8:	00 40 01 10 	mull	r8,r16
    63bc:	20 70 03 e2 	movepc	rret,8
    63c0:	14 30 e7 14 	br	10 <compare>,#al
    63c4:	00 10 00 41 	add	r2,1
    63c8:	0d 40 f5 04 	wl16	r8,0x7a4
    63cc:	0d 60 01 03 	wh16	r8,0x3
    63d0:	10 40 01 08 	ld32	r8,r8
    63d4:	0d 43 16 00 	wl16	r16,0x18a0
    63d8:	0d 60 02 03 	wh16	r16,0x3
    63dc:	10 40 02 10 	ld32	r16,r16
    63e0:	0d 45 31 3c 	wl16	r9,0x299c
    63e4:	0d 60 01 23 	wh16	r9,0x3
    63e8:	10 40 01 29 	ld32	r9,r9
    63ec:	00 40 01 10 	mull	r8,r16
    63f0:	20 70 03 e2 	movepc	rret,8
    63f4:	14 30 e7 07 	br	10 <compare>,#al
    63f8:	00 10 00 41 	add	r2,1
    63fc:	0d 40 f5 08 	wl16	r8,0x7a8
    6400:	0d 60 01 03 	wh16	r8,0x3
    6404:	10 40 01 08 	ld32	r8,r8
    6408:	0d 43 16 04 	wl16	r16,0x18a4
    640c:	0d 60 02 03 	wh16	r16,0x3
    6410:	10 40 02 10 	ld32	r16,r16
    6414:	0d 45 35 20 	wl16	r9,0x29a0
    6418:	0d 60 01 23 	wh16	r9,0x3
    641c:	10 40 01 29 	ld32	r9,r9
    6420:	00 40 01 10 	mull	r8,r16
    6424:	20 70 03 e2 	movepc	rret,8
    6428:	14 30 e6 fa 	br	10 <compare>,#al
    642c:	00 10 00 41 	add	r2,1
    6430:	0d 40 f5 0c 	wl16	r8,0x7ac
    6434:	0d 60 01 03 	wh16	r8,0x3
    6438:	10 40 01 08 	ld32	r8,r8
    643c:	0d 43 16 08 	wl16	r16,0x18a8
    6440:	0d 60 02 03 	wh16	r16,0x3
    6444:	10 40 02 10 	ld32	r16,r16
    6448:	0d 45 35 24 	wl16	r9,0x29a4
    644c:	0d 60 01 23 	wh16	r9,0x3
    6450:	10 40 01 29 	ld32	r9,r9
    6454:	00 40 01 10 	mull	r8,r16
    6458:	20 70 03 e2 	movepc	rret,8
    645c:	14 30 e6 ed 	br	10 <compare>,#al
    6460:	00 10 00 41 	add	r2,1
    6464:	0d 40 f5 10 	wl16	r8,0x7b0
    6468:	0d 60 01 03 	wh16	r8,0x3
    646c:	10 40 01 08 	ld32	r8,r8
    6470:	0d 43 16 0c 	wl16	r16,0x18ac
    6474:	0d 60 02 03 	wh16	r16,0x3
    6478:	10 40 02 10 	ld32	r16,r16
    647c:	0d 45 35 28 	wl16	r9,0x29a8
    6480:	0d 60 01 23 	wh16	r9,0x3
    6484:	10 40 01 29 	ld32	r9,r9
    6488:	00 40 01 10 	mull	r8,r16
    648c:	20 70 03 e2 	movepc	rret,8
    6490:	14 30 e6 e0 	br	10 <compare>,#al
    6494:	00 10 00 41 	add	r2,1
    6498:	0d 40 f5 14 	wl16	r8,0x7b4
    649c:	0d 60 01 03 	wh16	r8,0x3
    64a0:	10 40 01 08 	ld32	r8,r8
    64a4:	0d 43 16 10 	wl16	r16,0x18b0
    64a8:	0d 60 02 03 	wh16	r16,0x3
    64ac:	10 40 02 10 	ld32	r16,r16
    64b0:	0d 45 35 2c 	wl16	r9,0x29ac
    64b4:	0d 60 01 23 	wh16	r9,0x3
    64b8:	10 40 01 29 	ld32	r9,r9
    64bc:	00 40 01 10 	mull	r8,r16
    64c0:	20 70 03 e2 	movepc	rret,8
    64c4:	14 30 e6 d3 	br	10 <compare>,#al
    64c8:	00 10 00 41 	add	r2,1
    64cc:	0d 40 f5 18 	wl16	r8,0x7b8
    64d0:	0d 60 01 03 	wh16	r8,0x3
    64d4:	10 40 01 08 	ld32	r8,r8
    64d8:	0d 43 16 14 	wl16	r16,0x18b4
    64dc:	0d 60 02 03 	wh16	r16,0x3
    64e0:	10 40 02 10 	ld32	r16,r16
    64e4:	0d 45 35 30 	wl16	r9,0x29b0
    64e8:	0d 60 01 23 	wh16	r9,0x3
    64ec:	10 40 01 29 	ld32	r9,r9
    64f0:	00 40 01 10 	mull	r8,r16
    64f4:	20 70 03 e2 	movepc	rret,8
    64f8:	14 30 e6 c6 	br	10 <compare>,#al
    64fc:	00 10 00 41 	add	r2,1
    6500:	0d 40 f5 1c 	wl16	r8,0x7bc
    6504:	0d 60 01 03 	wh16	r8,0x3
    6508:	10 40 01 08 	ld32	r8,r8
    650c:	0d 43 16 18 	wl16	r16,0x18b8
    6510:	0d 60 02 03 	wh16	r16,0x3
    6514:	10 40 02 10 	ld32	r16,r16
    6518:	0d 45 35 34 	wl16	r9,0x29b4
    651c:	0d 60 01 23 	wh16	r9,0x3
    6520:	10 40 01 29 	ld32	r9,r9
    6524:	00 40 01 10 	mull	r8,r16
    6528:	20 70 03 e2 	movepc	rret,8
    652c:	14 30 e6 b9 	br	10 <compare>,#al
    6530:	00 10 00 41 	add	r2,1
    6534:	0d 40 f9 00 	wl16	r8,0x7c0
    6538:	0d 60 01 03 	wh16	r8,0x3
    653c:	10 40 01 08 	ld32	r8,r8
    6540:	0d 43 16 1c 	wl16	r16,0x18bc
    6544:	0d 60 02 03 	wh16	r16,0x3
    6548:	10 40 02 10 	ld32	r16,r16
    654c:	0d 45 35 38 	wl16	r9,0x29b8
    6550:	0d 60 01 23 	wh16	r9,0x3
    6554:	10 40 01 29 	ld32	r9,r9
    6558:	00 40 01 10 	mull	r8,r16
    655c:	20 70 03 e2 	movepc	rret,8
    6560:	14 30 e6 ac 	br	10 <compare>,#al
    6564:	00 10 00 41 	add	r2,1
    6568:	0d 40 f9 04 	wl16	r8,0x7c4
    656c:	0d 60 01 03 	wh16	r8,0x3
    6570:	10 40 01 08 	ld32	r8,r8
    6574:	0d 43 1a 00 	wl16	r16,0x18c0
    6578:	0d 60 02 03 	wh16	r16,0x3
    657c:	10 40 02 10 	ld32	r16,r16
    6580:	0d 45 35 3c 	wl16	r9,0x29bc
    6584:	0d 60 01 23 	wh16	r9,0x3
    6588:	10 40 01 29 	ld32	r9,r9
    658c:	00 40 01 10 	mull	r8,r16
    6590:	20 70 03 e2 	movepc	rret,8
    6594:	14 30 e6 9f 	br	10 <compare>,#al
    6598:	00 10 00 41 	add	r2,1
    659c:	0d 40 f9 08 	wl16	r8,0x7c8
    65a0:	0d 60 01 03 	wh16	r8,0x3
    65a4:	10 40 01 08 	ld32	r8,r8
    65a8:	0d 43 1a 04 	wl16	r16,0x18c4
    65ac:	0d 60 02 03 	wh16	r16,0x3
    65b0:	10 40 02 10 	ld32	r16,r16
    65b4:	0d 45 39 20 	wl16	r9,0x29c0
    65b8:	0d 60 01 23 	wh16	r9,0x3
    65bc:	10 40 01 29 	ld32	r9,r9
    65c0:	00 40 01 10 	mull	r8,r16
    65c4:	20 70 03 e2 	movepc	rret,8
    65c8:	14 30 e6 92 	br	10 <compare>,#al
    65cc:	00 10 00 41 	add	r2,1
    65d0:	0d 40 f9 0c 	wl16	r8,0x7cc
    65d4:	0d 60 01 03 	wh16	r8,0x3
    65d8:	10 40 01 08 	ld32	r8,r8
    65dc:	0d 43 1a 08 	wl16	r16,0x18c8
    65e0:	0d 60 02 03 	wh16	r16,0x3
    65e4:	10 40 02 10 	ld32	r16,r16
    65e8:	0d 45 39 24 	wl16	r9,0x29c4
    65ec:	0d 60 01 23 	wh16	r9,0x3
    65f0:	10 40 01 29 	ld32	r9,r9
    65f4:	00 40 01 10 	mull	r8,r16
    65f8:	20 70 03 e2 	movepc	rret,8
    65fc:	14 30 e6 85 	br	10 <compare>,#al
    6600:	00 10 00 41 	add	r2,1
    6604:	0d 40 f9 10 	wl16	r8,0x7d0
    6608:	0d 60 01 03 	wh16	r8,0x3
    660c:	10 40 01 08 	ld32	r8,r8
    6610:	0d 43 1a 0c 	wl16	r16,0x18cc
    6614:	0d 60 02 03 	wh16	r16,0x3
    6618:	10 40 02 10 	ld32	r16,r16
    661c:	0d 45 39 28 	wl16	r9,0x29c8
    6620:	0d 60 01 23 	wh16	r9,0x3
    6624:	10 40 01 29 	ld32	r9,r9
    6628:	00 40 01 10 	mull	r8,r16
    662c:	20 70 03 e2 	movepc	rret,8
    6630:	14 30 e6 78 	br	10 <compare>,#al
    6634:	00 10 00 41 	add	r2,1
    6638:	0d 40 f9 14 	wl16	r8,0x7d4
    663c:	0d 60 01 03 	wh16	r8,0x3
    6640:	10 40 01 08 	ld32	r8,r8
    6644:	0d 43 1a 10 	wl16	r16,0x18d0
    6648:	0d 60 02 03 	wh16	r16,0x3
    664c:	10 40 02 10 	ld32	r16,r16
    6650:	0d 45 39 2c 	wl16	r9,0x29cc
    6654:	0d 60 01 23 	wh16	r9,0x3
    6658:	10 40 01 29 	ld32	r9,r9
    665c:	00 40 01 10 	mull	r8,r16
    6660:	20 70 03 e2 	movepc	rret,8
    6664:	14 30 e6 6b 	br	10 <compare>,#al
    6668:	00 10 00 41 	add	r2,1
    666c:	0d 40 f9 18 	wl16	r8,0x7d8
    6670:	0d 60 01 03 	wh16	r8,0x3
    6674:	10 40 01 08 	ld32	r8,r8
    6678:	0d 43 1a 14 	wl16	r16,0x18d4
    667c:	0d 60 02 03 	wh16	r16,0x3
    6680:	10 40 02 10 	ld32	r16,r16
    6684:	0d 45 39 30 	wl16	r9,0x29d0
    6688:	0d 60 01 23 	wh16	r9,0x3
    668c:	10 40 01 29 	ld32	r9,r9
    6690:	00 40 01 10 	mull	r8,r16
    6694:	20 70 03 e2 	movepc	rret,8
    6698:	14 30 e6 5e 	br	10 <compare>,#al
    669c:	00 10 00 41 	add	r2,1
    66a0:	0d 40 f9 1c 	wl16	r8,0x7dc
    66a4:	0d 60 01 03 	wh16	r8,0x3
    66a8:	10 40 01 08 	ld32	r8,r8
    66ac:	0d 43 1a 18 	wl16	r16,0x18d8
    66b0:	0d 60 02 03 	wh16	r16,0x3
    66b4:	10 40 02 10 	ld32	r16,r16
    66b8:	0d 45 39 34 	wl16	r9,0x29d4
    66bc:	0d 60 01 23 	wh16	r9,0x3
    66c0:	10 40 01 29 	ld32	r9,r9
    66c4:	00 40 01 10 	mull	r8,r16
    66c8:	20 70 03 e2 	movepc	rret,8
    66cc:	14 30 e6 51 	br	10 <compare>,#al
    66d0:	00 10 00 41 	add	r2,1
    66d4:	0d 40 fd 00 	wl16	r8,0x7e0
    66d8:	0d 60 01 03 	wh16	r8,0x3
    66dc:	10 40 01 08 	ld32	r8,r8
    66e0:	0d 43 1a 1c 	wl16	r16,0x18dc
    66e4:	0d 60 02 03 	wh16	r16,0x3
    66e8:	10 40 02 10 	ld32	r16,r16
    66ec:	0d 45 39 38 	wl16	r9,0x29d8
    66f0:	0d 60 01 23 	wh16	r9,0x3
    66f4:	10 40 01 29 	ld32	r9,r9
    66f8:	00 40 01 10 	mull	r8,r16
    66fc:	20 70 03 e2 	movepc	rret,8
    6700:	14 30 e6 44 	br	10 <compare>,#al
    6704:	00 10 00 41 	add	r2,1
    6708:	0d 40 fd 04 	wl16	r8,0x7e4
    670c:	0d 60 01 03 	wh16	r8,0x3
    6710:	10 40 01 08 	ld32	r8,r8
    6714:	0d 43 1e 00 	wl16	r16,0x18e0
    6718:	0d 60 02 03 	wh16	r16,0x3
    671c:	10 40 02 10 	ld32	r16,r16
    6720:	0d 45 39 3c 	wl16	r9,0x29dc
    6724:	0d 60 01 23 	wh16	r9,0x3
    6728:	10 40 01 29 	ld32	r9,r9
    672c:	00 40 01 10 	mull	r8,r16
    6730:	20 70 03 e2 	movepc	rret,8
    6734:	14 30 e6 37 	br	10 <compare>,#al
    6738:	00 10 00 41 	add	r2,1
    673c:	0d 40 fd 08 	wl16	r8,0x7e8
    6740:	0d 60 01 03 	wh16	r8,0x3
    6744:	10 40 01 08 	ld32	r8,r8
    6748:	0d 43 1e 04 	wl16	r16,0x18e4
    674c:	0d 60 02 03 	wh16	r16,0x3
    6750:	10 40 02 10 	ld32	r16,r16
    6754:	0d 45 3d 20 	wl16	r9,0x29e0
    6758:	0d 60 01 23 	wh16	r9,0x3
    675c:	10 40 01 29 	ld32	r9,r9
    6760:	00 40 01 10 	mull	r8,r16
    6764:	20 70 03 e2 	movepc	rret,8
    6768:	14 30 e6 2a 	br	10 <compare>,#al
    676c:	00 10 00 41 	add	r2,1
    6770:	0d 40 fd 0c 	wl16	r8,0x7ec
    6774:	0d 60 01 03 	wh16	r8,0x3
    6778:	10 40 01 08 	ld32	r8,r8
    677c:	0d 43 1e 08 	wl16	r16,0x18e8
    6780:	0d 60 02 03 	wh16	r16,0x3
    6784:	10 40 02 10 	ld32	r16,r16
    6788:	0d 45 3d 24 	wl16	r9,0x29e4
    678c:	0d 60 01 23 	wh16	r9,0x3
    6790:	10 40 01 29 	ld32	r9,r9
    6794:	00 40 01 10 	mull	r8,r16
    6798:	20 70 03 e2 	movepc	rret,8
    679c:	14 30 e6 1d 	br	10 <compare>,#al
    67a0:	00 10 00 41 	add	r2,1
    67a4:	0d 40 fd 10 	wl16	r8,0x7f0
    67a8:	0d 60 01 03 	wh16	r8,0x3
    67ac:	10 40 01 08 	ld32	r8,r8
    67b0:	0d 43 1e 0c 	wl16	r16,0x18ec
    67b4:	0d 60 02 03 	wh16	r16,0x3
    67b8:	10 40 02 10 	ld32	r16,r16
    67bc:	0d 45 3d 28 	wl16	r9,0x29e8
    67c0:	0d 60 01 23 	wh16	r9,0x3
    67c4:	10 40 01 29 	ld32	r9,r9
    67c8:	00 40 01 10 	mull	r8,r16
    67cc:	20 70 03 e2 	movepc	rret,8
    67d0:	14 30 e6 10 	br	10 <compare>,#al
    67d4:	00 10 00 41 	add	r2,1
    67d8:	0d 40 fd 14 	wl16	r8,0x7f4
    67dc:	0d 60 01 03 	wh16	r8,0x3
    67e0:	10 40 01 08 	ld32	r8,r8
    67e4:	0d 43 1e 10 	wl16	r16,0x18f0
    67e8:	0d 60 02 03 	wh16	r16,0x3
    67ec:	10 40 02 10 	ld32	r16,r16
    67f0:	0d 45 3d 2c 	wl16	r9,0x29ec
    67f4:	0d 60 01 23 	wh16	r9,0x3
    67f8:	10 40 01 29 	ld32	r9,r9
    67fc:	00 40 01 10 	mull	r8,r16
    6800:	20 70 03 e2 	movepc	rret,8
    6804:	14 30 e6 03 	br	10 <compare>,#al
    6808:	00 10 00 41 	add	r2,1
    680c:	0d 40 fd 18 	wl16	r8,0x7f8
    6810:	0d 60 01 03 	wh16	r8,0x3
    6814:	10 40 01 08 	ld32	r8,r8
    6818:	0d 43 1e 14 	wl16	r16,0x18f4
    681c:	0d 60 02 03 	wh16	r16,0x3
    6820:	10 40 02 10 	ld32	r16,r16
    6824:	0d 45 3d 30 	wl16	r9,0x29f0
    6828:	0d 60 01 23 	wh16	r9,0x3
    682c:	10 40 01 29 	ld32	r9,r9
    6830:	00 40 01 10 	mull	r8,r16
    6834:	20 70 03 e2 	movepc	rret,8
    6838:	14 30 e5 f6 	br	10 <compare>,#al
    683c:	00 10 00 41 	add	r2,1
    6840:	0d 40 fd 1c 	wl16	r8,0x7fc
    6844:	0d 60 01 03 	wh16	r8,0x3
    6848:	10 40 01 08 	ld32	r8,r8
    684c:	0d 43 1e 18 	wl16	r16,0x18f8
    6850:	0d 60 02 03 	wh16	r16,0x3
    6854:	10 40 02 10 	ld32	r16,r16
    6858:	0d 45 3d 34 	wl16	r9,0x29f4
    685c:	0d 60 01 23 	wh16	r9,0x3
    6860:	10 40 01 29 	ld32	r9,r9
    6864:	00 40 01 10 	mull	r8,r16
    6868:	20 70 03 e2 	movepc	rret,8
    686c:	14 30 e5 e9 	br	10 <compare>,#al
    6870:	00 10 00 41 	add	r2,1
    6874:	0d 41 01 00 	wl16	r8,0x800
    6878:	0d 60 01 03 	wh16	r8,0x3
    687c:	10 40 01 08 	ld32	r8,r8
    6880:	0d 43 1e 1c 	wl16	r16,0x18fc
    6884:	0d 60 02 03 	wh16	r16,0x3
    6888:	10 40 02 10 	ld32	r16,r16
    688c:	0d 45 3d 38 	wl16	r9,0x29f8
    6890:	0d 60 01 23 	wh16	r9,0x3
    6894:	10 40 01 29 	ld32	r9,r9
    6898:	00 40 01 10 	mull	r8,r16
    689c:	20 70 03 e2 	movepc	rret,8
    68a0:	14 30 e5 dc 	br	10 <compare>,#al
    68a4:	00 10 00 41 	add	r2,1
    68a8:	0d 41 01 04 	wl16	r8,0x804
    68ac:	0d 60 01 03 	wh16	r8,0x3
    68b0:	10 40 01 08 	ld32	r8,r8
    68b4:	0d 43 22 00 	wl16	r16,0x1900
    68b8:	0d 60 02 03 	wh16	r16,0x3
    68bc:	10 40 02 10 	ld32	r16,r16
    68c0:	0d 45 3d 3c 	wl16	r9,0x29fc
    68c4:	0d 60 01 23 	wh16	r9,0x3
    68c8:	10 40 01 29 	ld32	r9,r9
    68cc:	00 40 01 10 	mull	r8,r16
    68d0:	20 70 03 e2 	movepc	rret,8
    68d4:	14 30 e5 cf 	br	10 <compare>,#al
    68d8:	00 10 00 41 	add	r2,1
    68dc:	0d 41 01 08 	wl16	r8,0x808
    68e0:	0d 60 01 03 	wh16	r8,0x3
    68e4:	10 40 01 08 	ld32	r8,r8
    68e8:	0d 43 22 04 	wl16	r16,0x1904
    68ec:	0d 60 02 03 	wh16	r16,0x3
    68f0:	10 40 02 10 	ld32	r16,r16
    68f4:	0d 45 41 20 	wl16	r9,0x2a00
    68f8:	0d 60 01 23 	wh16	r9,0x3
    68fc:	10 40 01 29 	ld32	r9,r9
    6900:	00 40 01 10 	mull	r8,r16
    6904:	20 70 03 e2 	movepc	rret,8
    6908:	14 30 e5 c2 	br	10 <compare>,#al
    690c:	00 10 00 41 	add	r2,1
    6910:	0d 41 01 0c 	wl16	r8,0x80c
    6914:	0d 60 01 03 	wh16	r8,0x3
    6918:	10 40 01 08 	ld32	r8,r8
    691c:	0d 43 22 08 	wl16	r16,0x1908
    6920:	0d 60 02 03 	wh16	r16,0x3
    6924:	10 40 02 10 	ld32	r16,r16
    6928:	0d 45 41 24 	wl16	r9,0x2a04
    692c:	0d 60 01 23 	wh16	r9,0x3
    6930:	10 40 01 29 	ld32	r9,r9
    6934:	00 40 01 10 	mull	r8,r16
    6938:	20 70 03 e2 	movepc	rret,8
    693c:	14 30 e5 b5 	br	10 <compare>,#al
    6940:	00 10 00 41 	add	r2,1
    6944:	0d 41 01 10 	wl16	r8,0x810
    6948:	0d 60 01 03 	wh16	r8,0x3
    694c:	10 40 01 08 	ld32	r8,r8
    6950:	0d 43 22 0c 	wl16	r16,0x190c
    6954:	0d 60 02 03 	wh16	r16,0x3
    6958:	10 40 02 10 	ld32	r16,r16
    695c:	0d 45 41 28 	wl16	r9,0x2a08
    6960:	0d 60 01 23 	wh16	r9,0x3
    6964:	10 40 01 29 	ld32	r9,r9
    6968:	00 40 01 10 	mull	r8,r16
    696c:	20 70 03 e2 	movepc	rret,8
    6970:	14 30 e5 a8 	br	10 <compare>,#al
    6974:	00 10 00 41 	add	r2,1
    6978:	0d 41 01 14 	wl16	r8,0x814
    697c:	0d 60 01 03 	wh16	r8,0x3
    6980:	10 40 01 08 	ld32	r8,r8
    6984:	0d 43 22 10 	wl16	r16,0x1910
    6988:	0d 60 02 03 	wh16	r16,0x3
    698c:	10 40 02 10 	ld32	r16,r16
    6990:	0d 45 41 2c 	wl16	r9,0x2a0c
    6994:	0d 60 01 23 	wh16	r9,0x3
    6998:	10 40 01 29 	ld32	r9,r9
    699c:	00 40 01 10 	mull	r8,r16
    69a0:	20 70 03 e2 	movepc	rret,8
    69a4:	14 30 e5 9b 	br	10 <compare>,#al
    69a8:	00 10 00 41 	add	r2,1
    69ac:	0d 41 01 18 	wl16	r8,0x818
    69b0:	0d 60 01 03 	wh16	r8,0x3
    69b4:	10 40 01 08 	ld32	r8,r8
    69b8:	0d 43 22 14 	wl16	r16,0x1914
    69bc:	0d 60 02 03 	wh16	r16,0x3
    69c0:	10 40 02 10 	ld32	r16,r16
    69c4:	0d 45 41 30 	wl16	r9,0x2a10
    69c8:	0d 60 01 23 	wh16	r9,0x3
    69cc:	10 40 01 29 	ld32	r9,r9
    69d0:	00 40 01 10 	mull	r8,r16
    69d4:	20 70 03 e2 	movepc	rret,8
    69d8:	14 30 e5 8e 	br	10 <compare>,#al
    69dc:	00 10 00 41 	add	r2,1
    69e0:	0d 41 01 1c 	wl16	r8,0x81c
    69e4:	0d 60 01 03 	wh16	r8,0x3
    69e8:	10 40 01 08 	ld32	r8,r8
    69ec:	0d 43 22 18 	wl16	r16,0x1918
    69f0:	0d 60 02 03 	wh16	r16,0x3
    69f4:	10 40 02 10 	ld32	r16,r16
    69f8:	0d 45 41 34 	wl16	r9,0x2a14
    69fc:	0d 60 01 23 	wh16	r9,0x3
    6a00:	10 40 01 29 	ld32	r9,r9
    6a04:	00 40 01 10 	mull	r8,r16
    6a08:	20 70 03 e2 	movepc	rret,8
    6a0c:	14 30 e5 81 	br	10 <compare>,#al
    6a10:	00 10 00 41 	add	r2,1
    6a14:	0d 41 05 00 	wl16	r8,0x820
    6a18:	0d 60 01 03 	wh16	r8,0x3
    6a1c:	10 40 01 08 	ld32	r8,r8
    6a20:	0d 43 22 1c 	wl16	r16,0x191c
    6a24:	0d 60 02 03 	wh16	r16,0x3
    6a28:	10 40 02 10 	ld32	r16,r16
    6a2c:	0d 45 41 38 	wl16	r9,0x2a18
    6a30:	0d 60 01 23 	wh16	r9,0x3
    6a34:	10 40 01 29 	ld32	r9,r9
    6a38:	00 40 01 10 	mull	r8,r16
    6a3c:	20 70 03 e2 	movepc	rret,8
    6a40:	14 30 e5 74 	br	10 <compare>,#al
    6a44:	00 10 00 41 	add	r2,1
    6a48:	0d 41 05 04 	wl16	r8,0x824
    6a4c:	0d 60 01 03 	wh16	r8,0x3
    6a50:	10 40 01 08 	ld32	r8,r8
    6a54:	0d 43 26 00 	wl16	r16,0x1920
    6a58:	0d 60 02 03 	wh16	r16,0x3
    6a5c:	10 40 02 10 	ld32	r16,r16
    6a60:	0d 45 41 3c 	wl16	r9,0x2a1c
    6a64:	0d 60 01 23 	wh16	r9,0x3
    6a68:	10 40 01 29 	ld32	r9,r9
    6a6c:	00 40 01 10 	mull	r8,r16
    6a70:	20 70 03 e2 	movepc	rret,8
    6a74:	14 30 e5 67 	br	10 <compare>,#al
    6a78:	00 10 00 41 	add	r2,1
    6a7c:	0d 41 05 08 	wl16	r8,0x828
    6a80:	0d 60 01 03 	wh16	r8,0x3
    6a84:	10 40 01 08 	ld32	r8,r8
    6a88:	0d 43 26 04 	wl16	r16,0x1924
    6a8c:	0d 60 02 03 	wh16	r16,0x3
    6a90:	10 40 02 10 	ld32	r16,r16
    6a94:	0d 45 45 20 	wl16	r9,0x2a20
    6a98:	0d 60 01 23 	wh16	r9,0x3
    6a9c:	10 40 01 29 	ld32	r9,r9
    6aa0:	00 40 01 10 	mull	r8,r16
    6aa4:	20 70 03 e2 	movepc	rret,8
    6aa8:	14 30 e5 5a 	br	10 <compare>,#al
    6aac:	00 10 00 41 	add	r2,1
    6ab0:	0d 41 05 0c 	wl16	r8,0x82c
    6ab4:	0d 60 01 03 	wh16	r8,0x3
    6ab8:	10 40 01 08 	ld32	r8,r8
    6abc:	0d 43 26 08 	wl16	r16,0x1928
    6ac0:	0d 60 02 03 	wh16	r16,0x3
    6ac4:	10 40 02 10 	ld32	r16,r16
    6ac8:	0d 45 45 24 	wl16	r9,0x2a24
    6acc:	0d 60 01 23 	wh16	r9,0x3
    6ad0:	10 40 01 29 	ld32	r9,r9
    6ad4:	00 40 01 10 	mull	r8,r16
    6ad8:	20 70 03 e2 	movepc	rret,8
    6adc:	14 30 e5 4d 	br	10 <compare>,#al
    6ae0:	00 10 00 41 	add	r2,1
    6ae4:	0d 41 05 10 	wl16	r8,0x830
    6ae8:	0d 60 01 03 	wh16	r8,0x3
    6aec:	10 40 01 08 	ld32	r8,r8
    6af0:	0d 43 26 0c 	wl16	r16,0x192c
    6af4:	0d 60 02 03 	wh16	r16,0x3
    6af8:	10 40 02 10 	ld32	r16,r16
    6afc:	0d 45 45 28 	wl16	r9,0x2a28
    6b00:	0d 60 01 23 	wh16	r9,0x3
    6b04:	10 40 01 29 	ld32	r9,r9
    6b08:	00 40 01 10 	mull	r8,r16
    6b0c:	20 70 03 e2 	movepc	rret,8
    6b10:	14 30 e5 40 	br	10 <compare>,#al
    6b14:	00 10 00 41 	add	r2,1
    6b18:	0d 41 05 14 	wl16	r8,0x834
    6b1c:	0d 60 01 03 	wh16	r8,0x3
    6b20:	10 40 01 08 	ld32	r8,r8
    6b24:	0d 43 26 10 	wl16	r16,0x1930
    6b28:	0d 60 02 03 	wh16	r16,0x3
    6b2c:	10 40 02 10 	ld32	r16,r16
    6b30:	0d 45 45 2c 	wl16	r9,0x2a2c
    6b34:	0d 60 01 23 	wh16	r9,0x3
    6b38:	10 40 01 29 	ld32	r9,r9
    6b3c:	00 40 01 10 	mull	r8,r16
    6b40:	20 70 03 e2 	movepc	rret,8
    6b44:	14 30 e5 33 	br	10 <compare>,#al
    6b48:	00 10 00 41 	add	r2,1
    6b4c:	0d 41 05 18 	wl16	r8,0x838
    6b50:	0d 60 01 03 	wh16	r8,0x3
    6b54:	10 40 01 08 	ld32	r8,r8
    6b58:	0d 43 26 14 	wl16	r16,0x1934
    6b5c:	0d 60 02 03 	wh16	r16,0x3
    6b60:	10 40 02 10 	ld32	r16,r16
    6b64:	0d 45 45 30 	wl16	r9,0x2a30
    6b68:	0d 60 01 23 	wh16	r9,0x3
    6b6c:	10 40 01 29 	ld32	r9,r9
    6b70:	00 40 01 10 	mull	r8,r16
    6b74:	20 70 03 e2 	movepc	rret,8
    6b78:	14 30 e5 26 	br	10 <compare>,#al
    6b7c:	00 10 00 41 	add	r2,1
    6b80:	0d 41 05 1c 	wl16	r8,0x83c
    6b84:	0d 60 01 03 	wh16	r8,0x3
    6b88:	10 40 01 08 	ld32	r8,r8
    6b8c:	0d 43 26 18 	wl16	r16,0x1938
    6b90:	0d 60 02 03 	wh16	r16,0x3
    6b94:	10 40 02 10 	ld32	r16,r16
    6b98:	0d 45 45 34 	wl16	r9,0x2a34
    6b9c:	0d 60 01 23 	wh16	r9,0x3
    6ba0:	10 40 01 29 	ld32	r9,r9
    6ba4:	00 40 01 10 	mull	r8,r16
    6ba8:	20 70 03 e2 	movepc	rret,8
    6bac:	14 30 e5 19 	br	10 <compare>,#al
    6bb0:	00 10 00 41 	add	r2,1
    6bb4:	0d 41 09 00 	wl16	r8,0x840
    6bb8:	0d 60 01 03 	wh16	r8,0x3
    6bbc:	10 40 01 08 	ld32	r8,r8
    6bc0:	0d 43 26 1c 	wl16	r16,0x193c
    6bc4:	0d 60 02 03 	wh16	r16,0x3
